
rpm_calculator_i2c.elf:     file format elf32-avr

Sections:
Idx Name          Size      VMA       LMA       File off  Algn
  0 .data         00000048  00800100  00001154  000011e8  2**0
                  CONTENTS, ALLOC, LOAD, DATA
  1 .text         00001154  00000000  00000000  00000094  2**1
                  CONTENTS, ALLOC, LOAD, READONLY, CODE
  2 .bss          00000010  00800148  00800148  00001230  2**0
                  ALLOC

Disassembly of section .text:

00000000 <__vectors>:
       0:	0c 94 34 00 	jmp	0x68	; 0x68 <__ctors_end>
       4:	0c 94 51 00 	jmp	0xa2	; 0xa2 <__bad_interrupt>
       8:	0c 94 2b 03 	jmp	0x656	; 0x656 <__vector_2>
       c:	0c 94 51 00 	jmp	0xa2	; 0xa2 <__bad_interrupt>
      10:	0c 94 51 00 	jmp	0xa2	; 0xa2 <__bad_interrupt>
      14:	0c 94 51 00 	jmp	0xa2	; 0xa2 <__bad_interrupt>
      18:	0c 94 51 00 	jmp	0xa2	; 0xa2 <__bad_interrupt>
      1c:	0c 94 51 00 	jmp	0xa2	; 0xa2 <__bad_interrupt>
      20:	0c 94 51 00 	jmp	0xa2	; 0xa2 <__bad_interrupt>
      24:	0c 94 51 00 	jmp	0xa2	; 0xa2 <__bad_interrupt>
      28:	0c 94 51 00 	jmp	0xa2	; 0xa2 <__bad_interrupt>
      2c:	0c 94 51 00 	jmp	0xa2	; 0xa2 <__bad_interrupt>
      30:	0c 94 51 00 	jmp	0xa2	; 0xa2 <__bad_interrupt>
      34:	0c 94 51 00 	jmp	0xa2	; 0xa2 <__bad_interrupt>
      38:	0c 94 4c 03 	jmp	0x698	; 0x698 <__vector_14>
      3c:	0c 94 51 00 	jmp	0xa2	; 0xa2 <__bad_interrupt>
      40:	0c 94 51 00 	jmp	0xa2	; 0xa2 <__bad_interrupt>
      44:	0c 94 51 00 	jmp	0xa2	; 0xa2 <__bad_interrupt>
      48:	0c 94 51 00 	jmp	0xa2	; 0xa2 <__bad_interrupt>
      4c:	0c 94 51 00 	jmp	0xa2	; 0xa2 <__bad_interrupt>
      50:	0c 94 51 00 	jmp	0xa2	; 0xa2 <__bad_interrupt>
      54:	0c 94 51 00 	jmp	0xa2	; 0xa2 <__bad_interrupt>
      58:	0c 94 51 00 	jmp	0xa2	; 0xa2 <__bad_interrupt>
      5c:	0c 94 51 00 	jmp	0xa2	; 0xa2 <__bad_interrupt>
      60:	0c 94 c4 00 	jmp	0x188	; 0x188 <__vector_24>
      64:	0c 94 51 00 	jmp	0xa2	; 0xa2 <__bad_interrupt>

00000068 <__ctors_end>:
      68:	11 24       	eor	r1, r1
      6a:	1f be       	out	0x3f, r1	; 63
      6c:	cf ef       	ldi	r28, 0xFF	; 255
      6e:	d8 e0       	ldi	r29, 0x08	; 8
      70:	de bf       	out	0x3e, r29	; 62
      72:	cd bf       	out	0x3d, r28	; 61

00000074 <__do_copy_data>:
      74:	11 e0       	ldi	r17, 0x01	; 1
      76:	a0 e0       	ldi	r26, 0x00	; 0
      78:	b1 e0       	ldi	r27, 0x01	; 1
      7a:	e4 e5       	ldi	r30, 0x54	; 84
      7c:	f1 e1       	ldi	r31, 0x11	; 17
      7e:	02 c0       	rjmp	.+4      	; 0x84 <.do_copy_data_start>

00000080 <.do_copy_data_loop>:
      80:	05 90       	lpm	r0, Z+
      82:	0d 92       	st	X+, r0

00000084 <.do_copy_data_start>:
      84:	a8 34       	cpi	r26, 0x48	; 72
      86:	b1 07       	cpc	r27, r17
      88:	d9 f7       	brne	.-10     	; 0x80 <.do_copy_data_loop>

0000008a <__do_clear_bss>:
      8a:	11 e0       	ldi	r17, 0x01	; 1
      8c:	a8 e4       	ldi	r26, 0x48	; 72
      8e:	b1 e0       	ldi	r27, 0x01	; 1
      90:	01 c0       	rjmp	.+2      	; 0x94 <.do_clear_bss_start>

00000092 <.do_clear_bss_loop>:
      92:	1d 92       	st	X+, r1

00000094 <.do_clear_bss_start>:
      94:	a8 35       	cpi	r26, 0x58	; 88
      96:	b1 07       	cpc	r27, r17
      98:	e1 f7       	brne	.-8      	; 0x92 <.do_clear_bss_loop>
      9a:	0e 94 01 05 	call	0xa02	; 0xa02 <main>
      9e:	0c 94 a8 08 	jmp	0x1150	; 0x1150 <_exit>

000000a2 <__bad_interrupt>:
      a2:	0c 94 00 00 	jmp	0	; 0x0 <__vectors>

000000a6 <SPI_MasterInit>:
      a6:	8c e2       	ldi	r24, 0x2C	; 44
      a8:	84 b9       	out	0x04, r24	; 4
      aa:	81 e7       	ldi	r24, 0x71	; 113
      ac:	8c bd       	out	0x2c, r24	; 44
      ae:	08 95       	ret

000000b0 <SPI_Transmit>:
      b0:	8e bd       	out	0x2e, r24	; 46
      b2:	0d b4       	in	r0, 0x2d	; 45
      b4:	07 fe       	sbrs	r0, 7
      b6:	fd cf       	rjmp	.-6      	; 0xb2 <SPI_Transmit+0x2>
      b8:	8e b5       	in	r24, 0x2e	; 46
      ba:	08 95       	ret

000000bc <SPI_SlaveReceive>:
      bc:	8e bd       	out	0x2e, r24	; 46
      be:	0d b4       	in	r0, 0x2d	; 45
      c0:	07 fe       	sbrs	r0, 7
      c2:	fd cf       	rjmp	.-6      	; 0xbe <SPI_SlaveReceive+0x2>
      c4:	8e b5       	in	r24, 0x2e	; 46
      c6:	08 95       	ret

000000c8 <TWI_Master_Initialise>:
      c8:	84 e8       	ldi	r24, 0x84	; 132
      ca:	80 93 b8 00 	sts	0x00B8, r24
      ce:	8f ef       	ldi	r24, 0xFF	; 255
      d0:	80 93 bb 00 	sts	0x00BB, r24
      d4:	84 e0       	ldi	r24, 0x04	; 4
      d6:	80 93 bc 00 	sts	0x00BC, r24
      da:	08 95       	ret

000000dc <TWI_Transceiver_Busy>:
      dc:	80 91 bc 00 	lds	r24, 0x00BC
      e0:	81 70       	andi	r24, 0x01	; 1
      e2:	08 95       	ret

000000e4 <TWI_Get_State_Info>:
      e4:	80 91 bc 00 	lds	r24, 0x00BC
      e8:	80 fd       	sbrc	r24, 0
      ea:	fc cf       	rjmp	.-8      	; 0xe4 <TWI_Get_State_Info>
      ec:	80 91 1c 01 	lds	r24, 0x011C
      f0:	08 95       	ret

000000f2 <TWI_Start_Transceiver_With_Data>:
      f2:	fc 01       	movw	r30, r24
      f4:	80 91 bc 00 	lds	r24, 0x00BC
      f8:	80 fd       	sbrc	r24, 0
      fa:	fc cf       	rjmp	.-8      	; 0xf4 <TWI_Start_Transceiver_With_Data+0x2>
      fc:	60 93 4e 01 	sts	0x014E, r22
     100:	80 81       	ld	r24, Z
     102:	80 93 4a 01 	sts	0x014A, r24
     106:	80 fd       	sbrc	r24, 0
     108:	0d c0       	rjmp	.+26     	; 0x124 <TWI_Start_Transceiver_With_Data+0x32>
     10a:	4e 2f       	mov	r20, r30
     10c:	ab e4       	ldi	r26, 0x4B	; 75
     10e:	b1 e0       	ldi	r27, 0x01	; 1
     110:	cf 01       	movw	r24, r30
     112:	fc 01       	movw	r30, r24
     114:	02 c0       	rjmp	.+4      	; 0x11a <TWI_Start_Transceiver_With_Data+0x28>
     116:	80 81       	ld	r24, Z
     118:	8d 93       	st	X+, r24
     11a:	31 96       	adiw	r30, 0x01	; 1
     11c:	8e 2f       	mov	r24, r30
     11e:	84 1b       	sub	r24, r20
     120:	86 17       	cp	r24, r22
     122:	c8 f3       	brcs	.-14     	; 0x116 <TWI_Start_Transceiver_With_Data+0x24>
     124:	10 92 48 01 	sts	0x0148, r1
     128:	88 ef       	ldi	r24, 0xF8	; 248
     12a:	80 93 1c 01 	sts	0x011C, r24
     12e:	85 ea       	ldi	r24, 0xA5	; 165
     130:	80 93 bc 00 	sts	0x00BC, r24
     134:	08 95       	ret

00000136 <TWI_Start_Transceiver>:
     136:	80 91 bc 00 	lds	r24, 0x00BC
     13a:	80 fd       	sbrc	r24, 0
     13c:	fc cf       	rjmp	.-8      	; 0x136 <TWI_Start_Transceiver>
     13e:	10 92 48 01 	sts	0x0148, r1
     142:	88 ef       	ldi	r24, 0xF8	; 248
     144:	80 93 1c 01 	sts	0x011C, r24
     148:	85 ea       	ldi	r24, 0xA5	; 165
     14a:	80 93 bc 00 	sts	0x00BC, r24
     14e:	08 95       	ret

00000150 <TWI_Get_Data_From_Transceiver>:
     150:	ac 01       	movw	r20, r24
     152:	80 91 bc 00 	lds	r24, 0x00BC
     156:	80 fd       	sbrc	r24, 0
     158:	fc cf       	rjmp	.-8      	; 0x152 <TWI_Get_Data_From_Transceiver+0x2>
     15a:	80 91 48 01 	lds	r24, 0x0148
     15e:	80 ff       	sbrs	r24, 0
     160:	0f c0       	rjmp	.+30     	; 0x180 <TWI_Get_Data_From_Transceiver+0x30>
     162:	20 e0       	ldi	r18, 0x00	; 0
     164:	30 e0       	ldi	r19, 0x00	; 0
     166:	0a c0       	rjmp	.+20     	; 0x17c <TWI_Get_Data_From_Transceiver+0x2c>
     168:	fa 01       	movw	r30, r20
     16a:	e2 0f       	add	r30, r18
     16c:	f3 1f       	adc	r31, r19
     16e:	d9 01       	movw	r26, r18
     170:	a6 5b       	subi	r26, 0xB6	; 182
     172:	be 4f       	sbci	r27, 0xFE	; 254
     174:	8c 91       	ld	r24, X
     176:	80 83       	st	Z, r24
     178:	2f 5f       	subi	r18, 0xFF	; 255
     17a:	3f 4f       	sbci	r19, 0xFF	; 255
     17c:	26 17       	cp	r18, r22
     17e:	a0 f3       	brcs	.-24     	; 0x168 <TWI_Get_Data_From_Transceiver+0x18>
     180:	80 91 48 01 	lds	r24, 0x0148
     184:	81 70       	andi	r24, 0x01	; 1
     186:	08 95       	ret

00000188 <__vector_24>:
     188:	1f 92       	push	r1
     18a:	0f 92       	push	r0
     18c:	0f b6       	in	r0, 0x3f	; 63
     18e:	0f 92       	push	r0
     190:	11 24       	eor	r1, r1
     192:	2f 93       	push	r18
     194:	3f 93       	push	r19
     196:	8f 93       	push	r24
     198:	9f 93       	push	r25
     19a:	ef 93       	push	r30
     19c:	ff 93       	push	r31
     19e:	80 91 b9 00 	lds	r24, 0x00B9
     1a2:	88 32       	cpi	r24, 0x28	; 40
     1a4:	d1 f0       	breq	.+52     	; 0x1da <__vector_24+0x52>
     1a6:	89 32       	cpi	r24, 0x29	; 41
     1a8:	40 f4       	brcc	.+16     	; 0x1ba <__vector_24+0x32>
     1aa:	80 31       	cpi	r24, 0x10	; 16
     1ac:	a1 f0       	breq	.+40     	; 0x1d6 <__vector_24+0x4e>
     1ae:	88 31       	cpi	r24, 0x18	; 24
     1b0:	a1 f0       	breq	.+40     	; 0x1da <__vector_24+0x52>
     1b2:	88 30       	cpi	r24, 0x08	; 8
     1b4:	09 f0       	breq	.+2      	; 0x1b8 <__vector_24+0x30>
     1b6:	4d c0       	rjmp	.+154    	; 0x252 <__vector_24+0xca>
     1b8:	0e c0       	rjmp	.+28     	; 0x1d6 <__vector_24+0x4e>
     1ba:	80 34       	cpi	r24, 0x40	; 64
     1bc:	59 f1       	breq	.+86     	; 0x214 <__vector_24+0x8c>
     1be:	81 34       	cpi	r24, 0x41	; 65
     1c0:	20 f4       	brcc	.+8      	; 0x1ca <__vector_24+0x42>
     1c2:	88 33       	cpi	r24, 0x38	; 56
     1c4:	09 f0       	breq	.+2      	; 0x1c8 <__vector_24+0x40>
     1c6:	45 c0       	rjmp	.+138    	; 0x252 <__vector_24+0xca>
     1c8:	42 c0       	rjmp	.+132    	; 0x24e <__vector_24+0xc6>
     1ca:	80 35       	cpi	r24, 0x50	; 80
     1cc:	b9 f0       	breq	.+46     	; 0x1fc <__vector_24+0x74>
     1ce:	88 35       	cpi	r24, 0x58	; 88
     1d0:	09 f0       	breq	.+2      	; 0x1d4 <__vector_24+0x4c>
     1d2:	3f c0       	rjmp	.+126    	; 0x252 <__vector_24+0xca>
     1d4:	2d c0       	rjmp	.+90     	; 0x230 <__vector_24+0xa8>
     1d6:	10 92 49 01 	sts	0x0149, r1
     1da:	90 91 49 01 	lds	r25, 0x0149
     1de:	80 91 4e 01 	lds	r24, 0x014E
     1e2:	98 17       	cp	r25, r24
     1e4:	68 f5       	brcc	.+90     	; 0x240 <__vector_24+0xb8>
     1e6:	e9 2f       	mov	r30, r25
     1e8:	f0 e0       	ldi	r31, 0x00	; 0
     1ea:	e6 5b       	subi	r30, 0xB6	; 182
     1ec:	fe 4f       	sbci	r31, 0xFE	; 254
     1ee:	80 81       	ld	r24, Z
     1f0:	80 93 bb 00 	sts	0x00BB, r24
     1f4:	9f 5f       	subi	r25, 0xFF	; 255
     1f6:	90 93 49 01 	sts	0x0149, r25
     1fa:	18 c0       	rjmp	.+48     	; 0x22c <__vector_24+0xa4>
     1fc:	80 91 49 01 	lds	r24, 0x0149
     200:	90 91 bb 00 	lds	r25, 0x00BB
     204:	e8 2f       	mov	r30, r24
     206:	f0 e0       	ldi	r31, 0x00	; 0
     208:	e6 5b       	subi	r30, 0xB6	; 182
     20a:	fe 4f       	sbci	r31, 0xFE	; 254
     20c:	90 83       	st	Z, r25
     20e:	8f 5f       	subi	r24, 0xFF	; 255
     210:	80 93 49 01 	sts	0x0149, r24
     214:	20 91 49 01 	lds	r18, 0x0149
     218:	30 e0       	ldi	r19, 0x00	; 0
     21a:	80 91 4e 01 	lds	r24, 0x014E
     21e:	90 e0       	ldi	r25, 0x00	; 0
     220:	01 97       	sbiw	r24, 0x01	; 1
     222:	28 17       	cp	r18, r24
     224:	39 07       	cpc	r19, r25
     226:	14 f4       	brge	.+4      	; 0x22c <__vector_24+0xa4>
     228:	85 ec       	ldi	r24, 0xC5	; 197
     22a:	18 c0       	rjmp	.+48     	; 0x25c <__vector_24+0xd4>
     22c:	85 e8       	ldi	r24, 0x85	; 133
     22e:	16 c0       	rjmp	.+44     	; 0x25c <__vector_24+0xd4>
     230:	80 91 bb 00 	lds	r24, 0x00BB
     234:	e0 91 49 01 	lds	r30, 0x0149
     238:	f0 e0       	ldi	r31, 0x00	; 0
     23a:	e6 5b       	subi	r30, 0xB6	; 182
     23c:	fe 4f       	sbci	r31, 0xFE	; 254
     23e:	80 83       	st	Z, r24
     240:	80 91 48 01 	lds	r24, 0x0148
     244:	81 60       	ori	r24, 0x01	; 1
     246:	80 93 48 01 	sts	0x0148, r24
     24a:	84 e9       	ldi	r24, 0x94	; 148
     24c:	07 c0       	rjmp	.+14     	; 0x25c <__vector_24+0xd4>
     24e:	85 ea       	ldi	r24, 0xA5	; 165
     250:	05 c0       	rjmp	.+10     	; 0x25c <__vector_24+0xd4>
     252:	80 91 b9 00 	lds	r24, 0x00B9
     256:	80 93 1c 01 	sts	0x011C, r24
     25a:	84 e0       	ldi	r24, 0x04	; 4
     25c:	80 93 bc 00 	sts	0x00BC, r24
     260:	ff 91       	pop	r31
     262:	ef 91       	pop	r30
     264:	9f 91       	pop	r25
     266:	8f 91       	pop	r24
     268:	3f 91       	pop	r19
     26a:	2f 91       	pop	r18
     26c:	0f 90       	pop	r0
     26e:	0f be       	out	0x3f, r0	; 63
     270:	0f 90       	pop	r0
     272:	1f 90       	pop	r1
     274:	18 95       	reti

00000276 <get_usart_stream>:
     276:	8d e1       	ldi	r24, 0x1D	; 29
     278:	91 e0       	ldi	r25, 0x01	; 1
     27a:	08 95       	ret

0000027c <USART_Init>:
     27c:	e0 ec       	ldi	r30, 0xC0	; 192
     27e:	f0 e0       	ldi	r31, 0x00	; 0
     280:	95 83       	std	Z+5, r25	; 0x05
     282:	84 83       	std	Z+4, r24	; 0x04
     284:	10 82       	st	Z, r1
     286:	88 e9       	ldi	r24, 0x98	; 152
     288:	81 83       	std	Z+1, r24	; 0x01
     28a:	86 e0       	ldi	r24, 0x06	; 6
     28c:	82 83       	std	Z+2, r24	; 0x02
     28e:	08 95       	ret

00000290 <USART_tx>:
     290:	98 2f       	mov	r25, r24
     292:	80 91 c0 00 	lds	r24, 0x00C0
     296:	85 ff       	sbrs	r24, 5
     298:	fc cf       	rjmp	.-8      	; 0x292 <USART_tx+0x2>
     29a:	e0 ec       	ldi	r30, 0xC0	; 192
     29c:	f0 e0       	ldi	r31, 0x00	; 0
     29e:	96 83       	std	Z+6, r25	; 0x06
     2a0:	08 95       	ret

000002a2 <USART_rx>:
     2a2:	80 91 c0 00 	lds	r24, 0x00C0
     2a6:	87 ff       	sbrs	r24, 7
     2a8:	fc cf       	rjmp	.-8      	; 0x2a2 <USART_rx>
     2aa:	80 91 c6 00 	lds	r24, 0x00C6
     2ae:	08 95       	ret

000002b0 <usart_putchar>:
     2b0:	98 2f       	mov	r25, r24
     2b2:	80 91 c0 00 	lds	r24, 0x00C0
     2b6:	85 ff       	sbrs	r24, 5
     2b8:	fc cf       	rjmp	.-8      	; 0x2b2 <usart_putchar+0x2>
     2ba:	e0 ec       	ldi	r30, 0xC0	; 192
     2bc:	f0 e0       	ldi	r31, 0x00	; 0
     2be:	96 83       	std	Z+6, r25	; 0x06
     2c0:	80 e0       	ldi	r24, 0x00	; 0
     2c2:	90 e0       	ldi	r25, 0x00	; 0
     2c4:	08 95       	ret

000002c6 <inic_stream>:
     2c6:	8b e2       	ldi	r24, 0x2B	; 43
     2c8:	91 e0       	ldi	r25, 0x01	; 1
     2ca:	08 95       	ret

000002cc <cmd_LCD>:
     2cc:	48 2f       	mov	r20, r24
     2ce:	66 23       	and	r22, r22
     2d0:	11 f4       	brne	.+4      	; 0x2d6 <cmd_LCD+0xa>
     2d2:	28 98       	cbi	0x05, 0	; 5
     2d4:	01 c0       	rjmp	.+2      	; 0x2d8 <cmd_LCD+0xc>
     2d6:	28 9a       	sbi	0x05, 0	; 5
     2d8:	8b b1       	in	r24, 0x0b	; 11
     2da:	94 2f       	mov	r25, r20
     2dc:	90 7f       	andi	r25, 0xF0	; 240
     2de:	8f 70       	andi	r24, 0x0F	; 15
     2e0:	98 2b       	or	r25, r24
     2e2:	9b b9       	out	0x0b, r25	; 11
     2e4:	25 e0       	ldi	r18, 0x05	; 5
     2e6:	82 2f       	mov	r24, r18
     2e8:	8a 95       	dec	r24
     2ea:	f1 f7       	brne	.-4      	; 0x2e8 <cmd_LCD+0x1c>
     2ec:	29 9a       	sbi	0x05, 1	; 5
     2ee:	82 2f       	mov	r24, r18
     2f0:	8a 95       	dec	r24
     2f2:	f1 f7       	brne	.-4      	; 0x2f0 <cmd_LCD+0x24>
     2f4:	29 98       	cbi	0x05, 1	; 5
     2f6:	30 ef       	ldi	r19, 0xF0	; 240
     2f8:	83 2f       	mov	r24, r19
     2fa:	8a 95       	dec	r24
     2fc:	f1 f7       	brne	.-4      	; 0x2fa <cmd_LCD+0x2e>
     2fe:	8b b1       	in	r24, 0x0b	; 11
     300:	94 2f       	mov	r25, r20
     302:	92 95       	swap	r25
     304:	90 7f       	andi	r25, 0xF0	; 240
     306:	8f 70       	andi	r24, 0x0F	; 15
     308:	98 2b       	or	r25, r24
     30a:	9b b9       	out	0x0b, r25	; 11
     30c:	82 2f       	mov	r24, r18
     30e:	8a 95       	dec	r24
     310:	f1 f7       	brne	.-4      	; 0x30e <cmd_LCD+0x42>
     312:	29 9a       	sbi	0x05, 1	; 5
     314:	2a 95       	dec	r18
     316:	f1 f7       	brne	.-4      	; 0x314 <cmd_LCD+0x48>
     318:	29 98       	cbi	0x05, 1	; 5
     31a:	3a 95       	dec	r19
     31c:	f1 f7       	brne	.-4      	; 0x31a <cmd_LCD+0x4e>
     31e:	66 23       	and	r22, r22
     320:	31 f4       	brne	.+12     	; 0x32e <cmd_LCD+0x62>
     322:	44 30       	cpi	r20, 0x04	; 4
     324:	20 f4       	brcc	.+8      	; 0x32e <cmd_LCD+0x62>
     326:	80 e4       	ldi	r24, 0x40	; 64
     328:	9f e1       	ldi	r25, 0x1F	; 31
     32a:	01 97       	sbiw	r24, 0x01	; 1
     32c:	f1 f7       	brne	.-4      	; 0x32a <cmd_LCD+0x5e>
     32e:	08 95       	ret

00000330 <inic_LCD_4bits>:
     330:	20 9a       	sbi	0x04, 0	; 4
     332:	21 9a       	sbi	0x04, 1	; 4
     334:	8a b1       	in	r24, 0x0a	; 10
     336:	80 6f       	ori	r24, 0xF0	; 240
     338:	8a b9       	out	0x0a, r24	; 10
     33a:	28 98       	cbi	0x05, 0	; 5
     33c:	29 98       	cbi	0x05, 1	; 5
     33e:	88 ec       	ldi	r24, 0xC8	; 200
     340:	90 e0       	ldi	r25, 0x00	; 0
     342:	20 e9       	ldi	r18, 0x90	; 144
     344:	31 e0       	ldi	r19, 0x01	; 1
     346:	f9 01       	movw	r30, r18
     348:	31 97       	sbiw	r30, 0x01	; 1
     34a:	f1 f7       	brne	.-4      	; 0x348 <inic_LCD_4bits+0x18>
     34c:	01 97       	sbiw	r24, 0x01	; 1
     34e:	d9 f7       	brne	.-10     	; 0x346 <inic_LCD_4bits+0x16>
     350:	8b b1       	in	r24, 0x0b	; 11
     352:	8f 70       	andi	r24, 0x0F	; 15
     354:	80 63       	ori	r24, 0x30	; 48
     356:	8b b9       	out	0x0b, r24	; 11
     358:	95 e0       	ldi	r25, 0x05	; 5
     35a:	89 2f       	mov	r24, r25
     35c:	8a 95       	dec	r24
     35e:	f1 f7       	brne	.-4      	; 0x35c <inic_LCD_4bits+0x2c>
     360:	29 9a       	sbi	0x05, 1	; 5
     362:	89 2f       	mov	r24, r25
     364:	8a 95       	dec	r24
     366:	f1 f7       	brne	.-4      	; 0x364 <inic_LCD_4bits+0x34>
     368:	29 98       	cbi	0x05, 1	; 5
     36a:	20 ef       	ldi	r18, 0xF0	; 240
     36c:	82 2f       	mov	r24, r18
     36e:	8a 95       	dec	r24
     370:	f1 f7       	brne	.-4      	; 0x36e <inic_LCD_4bits+0x3e>
     372:	e0 e2       	ldi	r30, 0x20	; 32
     374:	fe e4       	ldi	r31, 0x4E	; 78
     376:	31 97       	sbiw	r30, 0x01	; 1
     378:	f1 f7       	brne	.-4      	; 0x376 <inic_LCD_4bits+0x46>
     37a:	89 2f       	mov	r24, r25
     37c:	8a 95       	dec	r24
     37e:	f1 f7       	brne	.-4      	; 0x37c <inic_LCD_4bits+0x4c>
     380:	29 9a       	sbi	0x05, 1	; 5
     382:	89 2f       	mov	r24, r25
     384:	8a 95       	dec	r24
     386:	f1 f7       	brne	.-4      	; 0x384 <inic_LCD_4bits+0x54>
     388:	29 98       	cbi	0x05, 1	; 5
     38a:	82 2f       	mov	r24, r18
     38c:	8a 95       	dec	r24
     38e:	f1 f7       	brne	.-4      	; 0x38c <inic_LCD_4bits+0x5c>
     390:	e0 e2       	ldi	r30, 0x20	; 32
     392:	f3 e0       	ldi	r31, 0x03	; 3
     394:	31 97       	sbiw	r30, 0x01	; 1
     396:	f1 f7       	brne	.-4      	; 0x394 <inic_LCD_4bits+0x64>
     398:	89 2f       	mov	r24, r25
     39a:	8a 95       	dec	r24
     39c:	f1 f7       	brne	.-4      	; 0x39a <inic_LCD_4bits+0x6a>
     39e:	29 9a       	sbi	0x05, 1	; 5
     3a0:	89 2f       	mov	r24, r25
     3a2:	8a 95       	dec	r24
     3a4:	f1 f7       	brne	.-4      	; 0x3a2 <inic_LCD_4bits+0x72>
     3a6:	29 98       	cbi	0x05, 1	; 5
     3a8:	82 2f       	mov	r24, r18
     3aa:	8a 95       	dec	r24
     3ac:	f1 f7       	brne	.-4      	; 0x3aa <inic_LCD_4bits+0x7a>
     3ae:	8b b1       	in	r24, 0x0b	; 11
     3b0:	8f 70       	andi	r24, 0x0F	; 15
     3b2:	80 62       	ori	r24, 0x20	; 32
     3b4:	8b b9       	out	0x0b, r24	; 11
     3b6:	89 2f       	mov	r24, r25
     3b8:	8a 95       	dec	r24
     3ba:	f1 f7       	brne	.-4      	; 0x3b8 <inic_LCD_4bits+0x88>
     3bc:	29 9a       	sbi	0x05, 1	; 5
     3be:	9a 95       	dec	r25
     3c0:	f1 f7       	brne	.-4      	; 0x3be <inic_LCD_4bits+0x8e>
     3c2:	29 98       	cbi	0x05, 1	; 5
     3c4:	2a 95       	dec	r18
     3c6:	f1 f7       	brne	.-4      	; 0x3c4 <inic_LCD_4bits+0x94>
     3c8:	88 e2       	ldi	r24, 0x28	; 40
     3ca:	60 e0       	ldi	r22, 0x00	; 0
     3cc:	0e 94 66 01 	call	0x2cc	; 0x2cc <cmd_LCD>
     3d0:	88 e0       	ldi	r24, 0x08	; 8
     3d2:	60 e0       	ldi	r22, 0x00	; 0
     3d4:	0e 94 66 01 	call	0x2cc	; 0x2cc <cmd_LCD>
     3d8:	81 e0       	ldi	r24, 0x01	; 1
     3da:	60 e0       	ldi	r22, 0x00	; 0
     3dc:	0e 94 66 01 	call	0x2cc	; 0x2cc <cmd_LCD>
     3e0:	8c e0       	ldi	r24, 0x0C	; 12
     3e2:	60 e0       	ldi	r22, 0x00	; 0
     3e4:	0e 94 66 01 	call	0x2cc	; 0x2cc <cmd_LCD>
     3e8:	80 e8       	ldi	r24, 0x80	; 128
     3ea:	60 e0       	ldi	r22, 0x00	; 0
     3ec:	0e 94 66 01 	call	0x2cc	; 0x2cc <cmd_LCD>
     3f0:	08 95       	ret

000003f2 <escreve_LCD>:
     3f2:	cf 93       	push	r28
     3f4:	df 93       	push	r29
     3f6:	ec 01       	movw	r28, r24
     3f8:	04 c0       	rjmp	.+8      	; 0x402 <escreve_LCD+0x10>
     3fa:	61 e0       	ldi	r22, 0x01	; 1
     3fc:	0e 94 66 01 	call	0x2cc	; 0x2cc <cmd_LCD>
     400:	21 96       	adiw	r28, 0x01	; 1
     402:	88 81       	ld	r24, Y
     404:	88 23       	and	r24, r24
     406:	c9 f7       	brne	.-14     	; 0x3fa <escreve_LCD+0x8>
     408:	df 91       	pop	r29
     40a:	cf 91       	pop	r28
     40c:	08 95       	ret

0000040e <escreve_LCD_Flash>:
     40e:	cf 93       	push	r28
     410:	df 93       	push	r29
     412:	ec 01       	movw	r28, r24
     414:	04 c0       	rjmp	.+8      	; 0x41e <escreve_LCD_Flash+0x10>
     416:	61 e0       	ldi	r22, 0x01	; 1
     418:	0e 94 66 01 	call	0x2cc	; 0x2cc <cmd_LCD>
     41c:	21 96       	adiw	r28, 0x01	; 1
     41e:	fe 01       	movw	r30, r28
     420:	84 91       	lpm	r24, Z+
     422:	88 23       	and	r24, r24
     424:	c1 f7       	brne	.-16     	; 0x416 <escreve_LCD_Flash+0x8>
     426:	df 91       	pop	r29
     428:	cf 91       	pop	r28
     42a:	08 95       	ret

0000042c <lcd_putchar>:
     42c:	61 e0       	ldi	r22, 0x01	; 1
     42e:	0e 94 66 01 	call	0x2cc	; 0x2cc <cmd_LCD>
     432:	81 e0       	ldi	r24, 0x01	; 1
     434:	90 e0       	ldi	r25, 0x00	; 0
     436:	08 95       	ret

00000438 <inic_stream_i2c>:
     438:	89 e3       	ldi	r24, 0x39	; 57
     43a:	91 e0       	ldi	r25, 0x01	; 1
     43c:	08 95       	ret

0000043e <cmd_LCD_i2c>:
     43e:	0f 93       	push	r16
     440:	1f 93       	push	r17
     442:	18 2f       	mov	r17, r24
     444:	06 2f       	mov	r16, r22
     446:	66 23       	and	r22, r22
     448:	21 f4       	brne	.+8      	; 0x452 <cmd_LCD_i2c+0x14>
     44a:	80 91 51 01 	lds	r24, 0x0151
     44e:	8e 7f       	andi	r24, 0xFE	; 254
     450:	03 c0       	rjmp	.+6      	; 0x458 <cmd_LCD_i2c+0x1a>
     452:	80 91 51 01 	lds	r24, 0x0151
     456:	81 60       	ori	r24, 0x01	; 1
     458:	80 93 51 01 	sts	0x0151, r24
     45c:	91 2f       	mov	r25, r17
     45e:	90 7f       	andi	r25, 0xF0	; 240
     460:	80 91 51 01 	lds	r24, 0x0151
     464:	8f 70       	andi	r24, 0x0F	; 15
     466:	98 2b       	or	r25, r24
     468:	94 60       	ori	r25, 0x04	; 4
     46a:	90 93 51 01 	sts	0x0151, r25
     46e:	80 e5       	ldi	r24, 0x50	; 80
     470:	91 e0       	ldi	r25, 0x01	; 1
     472:	62 e0       	ldi	r22, 0x02	; 2
     474:	0e 94 79 00 	call	0xf2	; 0xf2 <TWI_Start_Transceiver_With_Data>
     478:	80 91 51 01 	lds	r24, 0x0151
     47c:	8b 7f       	andi	r24, 0xFB	; 251
     47e:	80 93 51 01 	sts	0x0151, r24
     482:	80 e5       	ldi	r24, 0x50	; 80
     484:	91 e0       	ldi	r25, 0x01	; 1
     486:	62 e0       	ldi	r22, 0x02	; 2
     488:	0e 94 79 00 	call	0xf2	; 0xf2 <TWI_Start_Transceiver_With_Data>
     48c:	91 2f       	mov	r25, r17
     48e:	92 95       	swap	r25
     490:	90 7f       	andi	r25, 0xF0	; 240
     492:	80 91 51 01 	lds	r24, 0x0151
     496:	8f 70       	andi	r24, 0x0F	; 15
     498:	98 2b       	or	r25, r24
     49a:	94 60       	ori	r25, 0x04	; 4
     49c:	90 93 51 01 	sts	0x0151, r25
     4a0:	80 e5       	ldi	r24, 0x50	; 80
     4a2:	91 e0       	ldi	r25, 0x01	; 1
     4a4:	62 e0       	ldi	r22, 0x02	; 2
     4a6:	0e 94 79 00 	call	0xf2	; 0xf2 <TWI_Start_Transceiver_With_Data>
     4aa:	80 91 51 01 	lds	r24, 0x0151
     4ae:	8b 7f       	andi	r24, 0xFB	; 251
     4b0:	80 93 51 01 	sts	0x0151, r24
     4b4:	80 e5       	ldi	r24, 0x50	; 80
     4b6:	91 e0       	ldi	r25, 0x01	; 1
     4b8:	62 e0       	ldi	r22, 0x02	; 2
     4ba:	0e 94 79 00 	call	0xf2	; 0xf2 <TWI_Start_Transceiver_With_Data>
     4be:	00 23       	and	r16, r16
     4c0:	31 f4       	brne	.+12     	; 0x4ce <cmd_LCD_i2c+0x90>
     4c2:	14 30       	cpi	r17, 0x04	; 4
     4c4:	20 f4       	brcc	.+8      	; 0x4ce <cmd_LCD_i2c+0x90>
     4c6:	80 e4       	ldi	r24, 0x40	; 64
     4c8:	9f e1       	ldi	r25, 0x1F	; 31
     4ca:	01 97       	sbiw	r24, 0x01	; 1
     4cc:	f1 f7       	brne	.-4      	; 0x4ca <cmd_LCD_i2c+0x8c>
     4ce:	1f 91       	pop	r17
     4d0:	0f 91       	pop	r16
     4d2:	08 95       	ret

000004d4 <lcd_putchar_i2c>:
     4d4:	61 e0       	ldi	r22, 0x01	; 1
     4d6:	0e 94 1f 02 	call	0x43e	; 0x43e <cmd_LCD_i2c>
     4da:	80 e0       	ldi	r24, 0x00	; 0
     4dc:	90 e0       	ldi	r25, 0x00	; 0
     4de:	08 95       	ret

000004e0 <escreve_LCD_Flash_i2c>:
     4e0:	cf 93       	push	r28
     4e2:	df 93       	push	r29
     4e4:	ec 01       	movw	r28, r24
     4e6:	04 c0       	rjmp	.+8      	; 0x4f0 <escreve_LCD_Flash_i2c+0x10>
     4e8:	61 e0       	ldi	r22, 0x01	; 1
     4ea:	0e 94 1f 02 	call	0x43e	; 0x43e <cmd_LCD_i2c>
     4ee:	21 96       	adiw	r28, 0x01	; 1
     4f0:	fe 01       	movw	r30, r28
     4f2:	84 91       	lpm	r24, Z+
     4f4:	88 23       	and	r24, r24
     4f6:	c1 f7       	brne	.-16     	; 0x4e8 <escreve_LCD_Flash_i2c+0x8>
     4f8:	df 91       	pop	r29
     4fa:	cf 91       	pop	r28
     4fc:	08 95       	ret

000004fe <escreve_LCD_i2c>:
     4fe:	cf 93       	push	r28
     500:	df 93       	push	r29
     502:	ec 01       	movw	r28, r24
     504:	04 c0       	rjmp	.+8      	; 0x50e <escreve_LCD_i2c+0x10>
     506:	61 e0       	ldi	r22, 0x01	; 1
     508:	0e 94 1f 02 	call	0x43e	; 0x43e <cmd_LCD_i2c>
     50c:	21 96       	adiw	r28, 0x01	; 1
     50e:	88 81       	ld	r24, Y
     510:	88 23       	and	r24, r24
     512:	c9 f7       	brne	.-14     	; 0x506 <escreve_LCD_i2c+0x8>
     514:	df 91       	pop	r29
     516:	cf 91       	pop	r28
     518:	08 95       	ret

0000051a <inic_LCD_4bits_i2c>:
     51a:	8e e4       	ldi	r24, 0x4E	; 78
     51c:	80 93 50 01 	sts	0x0150, r24
     520:	85 e0       	ldi	r24, 0x05	; 5
     522:	80 93 51 01 	sts	0x0151, r24
     526:	80 91 4f 01 	lds	r24, 0x014F
     52a:	80 6f       	ori	r24, 0xF0	; 240
     52c:	80 93 4f 01 	sts	0x014F, r24
     530:	80 e5       	ldi	r24, 0x50	; 80
     532:	91 e0       	ldi	r25, 0x01	; 1
     534:	62 e0       	ldi	r22, 0x02	; 2
     536:	0e 94 79 00 	call	0xf2	; 0xf2 <TWI_Start_Transceiver_With_Data>
     53a:	80 91 51 01 	lds	r24, 0x0151
     53e:	8a 7f       	andi	r24, 0xFA	; 250
     540:	80 93 51 01 	sts	0x0151, r24
     544:	80 e5       	ldi	r24, 0x50	; 80
     546:	91 e0       	ldi	r25, 0x01	; 1
     548:	62 e0       	ldi	r22, 0x02	; 2
     54a:	0e 94 79 00 	call	0xf2	; 0xf2 <TWI_Start_Transceiver_With_Data>
     54e:	88 ec       	ldi	r24, 0xC8	; 200
     550:	90 e0       	ldi	r25, 0x00	; 0
     552:	20 e9       	ldi	r18, 0x90	; 144
     554:	31 e0       	ldi	r19, 0x01	; 1
     556:	f9 01       	movw	r30, r18
     558:	31 97       	sbiw	r30, 0x01	; 1
     55a:	f1 f7       	brne	.-4      	; 0x558 <inic_LCD_4bits_i2c+0x3e>
     55c:	01 97       	sbiw	r24, 0x01	; 1
     55e:	d9 f7       	brne	.-10     	; 0x556 <inic_LCD_4bits_i2c+0x3c>
     560:	80 91 51 01 	lds	r24, 0x0151
     564:	8f 70       	andi	r24, 0x0F	; 15
     566:	84 63       	ori	r24, 0x34	; 52
     568:	80 93 51 01 	sts	0x0151, r24
     56c:	80 e5       	ldi	r24, 0x50	; 80
     56e:	91 e0       	ldi	r25, 0x01	; 1
     570:	62 e0       	ldi	r22, 0x02	; 2
     572:	0e 94 79 00 	call	0xf2	; 0xf2 <TWI_Start_Transceiver_With_Data>
     576:	80 91 51 01 	lds	r24, 0x0151
     57a:	8b 7f       	andi	r24, 0xFB	; 251
     57c:	80 93 51 01 	sts	0x0151, r24
     580:	80 e5       	ldi	r24, 0x50	; 80
     582:	91 e0       	ldi	r25, 0x01	; 1
     584:	62 e0       	ldi	r22, 0x02	; 2
     586:	0e 94 79 00 	call	0xf2	; 0xf2 <TWI_Start_Transceiver_With_Data>
     58a:	80 e2       	ldi	r24, 0x20	; 32
     58c:	9e e4       	ldi	r25, 0x4E	; 78
     58e:	01 97       	sbiw	r24, 0x01	; 1
     590:	f1 f7       	brne	.-4      	; 0x58e <inic_LCD_4bits_i2c+0x74>
     592:	80 91 51 01 	lds	r24, 0x0151
     596:	84 60       	ori	r24, 0x04	; 4
     598:	80 93 51 01 	sts	0x0151, r24
     59c:	80 e5       	ldi	r24, 0x50	; 80
     59e:	91 e0       	ldi	r25, 0x01	; 1
     5a0:	62 e0       	ldi	r22, 0x02	; 2
     5a2:	0e 94 79 00 	call	0xf2	; 0xf2 <TWI_Start_Transceiver_With_Data>
     5a6:	80 91 51 01 	lds	r24, 0x0151
     5aa:	8b 7f       	andi	r24, 0xFB	; 251
     5ac:	80 93 51 01 	sts	0x0151, r24
     5b0:	80 e5       	ldi	r24, 0x50	; 80
     5b2:	91 e0       	ldi	r25, 0x01	; 1
     5b4:	62 e0       	ldi	r22, 0x02	; 2
     5b6:	0e 94 79 00 	call	0xf2	; 0xf2 <TWI_Start_Transceiver_With_Data>
     5ba:	80 e2       	ldi	r24, 0x20	; 32
     5bc:	93 e0       	ldi	r25, 0x03	; 3
     5be:	01 97       	sbiw	r24, 0x01	; 1
     5c0:	f1 f7       	brne	.-4      	; 0x5be <inic_LCD_4bits_i2c+0xa4>
     5c2:	80 91 51 01 	lds	r24, 0x0151
     5c6:	84 60       	ori	r24, 0x04	; 4
     5c8:	80 93 51 01 	sts	0x0151, r24
     5cc:	80 e5       	ldi	r24, 0x50	; 80
     5ce:	91 e0       	ldi	r25, 0x01	; 1
     5d0:	62 e0       	ldi	r22, 0x02	; 2
     5d2:	0e 94 79 00 	call	0xf2	; 0xf2 <TWI_Start_Transceiver_With_Data>
     5d6:	80 91 51 01 	lds	r24, 0x0151
     5da:	8b 7f       	andi	r24, 0xFB	; 251
     5dc:	80 93 51 01 	sts	0x0151, r24
     5e0:	80 e5       	ldi	r24, 0x50	; 80
     5e2:	91 e0       	ldi	r25, 0x01	; 1
     5e4:	62 e0       	ldi	r22, 0x02	; 2
     5e6:	0e 94 79 00 	call	0xf2	; 0xf2 <TWI_Start_Transceiver_With_Data>
     5ea:	80 91 51 01 	lds	r24, 0x0151
     5ee:	8f 70       	andi	r24, 0x0F	; 15
     5f0:	84 62       	ori	r24, 0x24	; 36
     5f2:	80 93 51 01 	sts	0x0151, r24
     5f6:	80 e5       	ldi	r24, 0x50	; 80
     5f8:	91 e0       	ldi	r25, 0x01	; 1
     5fa:	62 e0       	ldi	r22, 0x02	; 2
     5fc:	0e 94 79 00 	call	0xf2	; 0xf2 <TWI_Start_Transceiver_With_Data>
     600:	80 91 51 01 	lds	r24, 0x0151
     604:	8b 7f       	andi	r24, 0xFB	; 251
     606:	80 93 51 01 	sts	0x0151, r24
     60a:	80 e5       	ldi	r24, 0x50	; 80
     60c:	91 e0       	ldi	r25, 0x01	; 1
     60e:	62 e0       	ldi	r22, 0x02	; 2
     610:	0e 94 79 00 	call	0xf2	; 0xf2 <TWI_Start_Transceiver_With_Data>
     614:	88 e2       	ldi	r24, 0x28	; 40
     616:	60 e0       	ldi	r22, 0x00	; 0
     618:	0e 94 1f 02 	call	0x43e	; 0x43e <cmd_LCD_i2c>
     61c:	88 e0       	ldi	r24, 0x08	; 8
     61e:	60 e0       	ldi	r22, 0x00	; 0
     620:	0e 94 1f 02 	call	0x43e	; 0x43e <cmd_LCD_i2c>
     624:	81 e0       	ldi	r24, 0x01	; 1
     626:	60 e0       	ldi	r22, 0x00	; 0
     628:	0e 94 1f 02 	call	0x43e	; 0x43e <cmd_LCD_i2c>
     62c:	8c e0       	ldi	r24, 0x0C	; 12
     62e:	60 e0       	ldi	r22, 0x00	; 0
     630:	0e 94 1f 02 	call	0x43e	; 0x43e <cmd_LCD_i2c>
     634:	80 e8       	ldi	r24, 0x80	; 128
     636:	60 e0       	ldi	r22, 0x00	; 0
     638:	0e 94 1f 02 	call	0x43e	; 0x43e <cmd_LCD_i2c>
     63c:	08 95       	ret

0000063e <timer0_init>:
     63e:	82 e0       	ldi	r24, 0x02	; 2
     640:	84 bd       	out	0x24, r24	; 36
     642:	85 e0       	ldi	r24, 0x05	; 5
     644:	85 bd       	out	0x25, r24	; 37
     646:	ee e6       	ldi	r30, 0x6E	; 110
     648:	f0 e0       	ldi	r31, 0x00	; 0
     64a:	80 81       	ld	r24, Z
     64c:	82 60       	ori	r24, 0x02	; 2
     64e:	80 83       	st	Z, r24
     650:	88 ec       	ldi	r24, 0xC8	; 200
     652:	87 bd       	out	0x27, r24	; 39
     654:	08 95       	ret

00000656 <__vector_2>:
     656:	1f 92       	push	r1
     658:	0f 92       	push	r0
     65a:	0f b6       	in	r0, 0x3f	; 63
     65c:	0f 92       	push	r0
     65e:	11 24       	eor	r1, r1
     660:	8f 93       	push	r24
     662:	9f 93       	push	r25
     664:	80 91 52 01 	lds	r24, 0x0152
     668:	90 91 53 01 	lds	r25, 0x0153
     66c:	90 93 55 01 	sts	0x0155, r25
     670:	80 93 54 01 	sts	0x0154, r24
     674:	86 b5       	in	r24, 0x26	; 38
     676:	90 e0       	ldi	r25, 0x00	; 0
     678:	90 93 57 01 	sts	0x0157, r25
     67c:	80 93 56 01 	sts	0x0156, r24
     680:	10 92 53 01 	sts	0x0153, r1
     684:	10 92 52 01 	sts	0x0152, r1
     688:	16 bc       	out	0x26, r1	; 38
     68a:	9f 91       	pop	r25
     68c:	8f 91       	pop	r24
     68e:	0f 90       	pop	r0
     690:	0f be       	out	0x3f, r0	; 63
     692:	0f 90       	pop	r0
     694:	1f 90       	pop	r1
     696:	18 95       	reti

00000698 <__vector_14>:
     698:	1f 92       	push	r1
     69a:	0f 92       	push	r0
     69c:	0f b6       	in	r0, 0x3f	; 63
     69e:	0f 92       	push	r0
     6a0:	11 24       	eor	r1, r1
     6a2:	8f 93       	push	r24
     6a4:	9f 93       	push	r25
     6a6:	80 91 52 01 	lds	r24, 0x0152
     6aa:	90 91 53 01 	lds	r25, 0x0153
     6ae:	01 96       	adiw	r24, 0x01	; 1
     6b0:	90 93 53 01 	sts	0x0153, r25
     6b4:	80 93 52 01 	sts	0x0152, r24
     6b8:	9f 91       	pop	r25
     6ba:	8f 91       	pop	r24
     6bc:	0f 90       	pop	r0
     6be:	0f be       	out	0x3f, r0	; 63
     6c0:	0f 90       	pop	r0
     6c2:	1f 90       	pop	r1
     6c4:	18 95       	reti

000006c6 <calc_real_time_ms>:
     6c6:	af 92       	push	r10
     6c8:	bf 92       	push	r11
     6ca:	cf 92       	push	r12
     6cc:	df 92       	push	r13
     6ce:	ef 92       	push	r14
     6d0:	ff 92       	push	r15
     6d2:	0f 93       	push	r16
     6d4:	1f 93       	push	r17
     6d6:	7c 01       	movw	r14, r24
     6d8:	5b 01       	movw	r10, r22
     6da:	6a 01       	movw	r12, r20
     6dc:	ca 01       	movw	r24, r20
     6de:	b9 01       	movw	r22, r18
     6e0:	0e 94 5e 05 	call	0xabc	; 0xabc <__udivmodhi4>
     6e4:	80 e0       	ldi	r24, 0x00	; 0
     6e6:	90 e0       	ldi	r25, 0x00	; 0
     6e8:	00 e0       	ldi	r16, 0x00	; 0
     6ea:	10 e0       	ldi	r17, 0x00	; 0
     6ec:	a8 01       	movw	r20, r16
     6ee:	97 01       	movw	r18, r14
     6f0:	0e 94 3f 05 	call	0xa7e	; 0xa7e <__mulsi3>
     6f4:	24 e6       	ldi	r18, 0x64	; 100
     6f6:	30 e0       	ldi	r19, 0x00	; 0
     6f8:	40 e0       	ldi	r20, 0x00	; 0
     6fa:	50 e0       	ldi	r21, 0x00	; 0
     6fc:	0e 94 72 05 	call	0xae4	; 0xae4 <__udivmodsi4>
     700:	79 01       	movw	r14, r18
     702:	8a 01       	movw	r16, r20
     704:	c6 01       	movw	r24, r12
     706:	64 e6       	ldi	r22, 0x64	; 100
     708:	70 e0       	ldi	r23, 0x00	; 0
     70a:	0e 94 5e 05 	call	0xabc	; 0xabc <__udivmodhi4>
     70e:	6a 9d       	mul	r22, r10
     710:	90 01       	movw	r18, r0
     712:	6b 9d       	mul	r22, r11
     714:	30 0d       	add	r19, r0
     716:	7a 9d       	mul	r23, r10
     718:	30 0d       	add	r19, r0
     71a:	11 24       	eor	r1, r1
     71c:	40 e0       	ldi	r20, 0x00	; 0
     71e:	50 e0       	ldi	r21, 0x00	; 0
     720:	2e 0d       	add	r18, r14
     722:	3f 1d       	adc	r19, r15
     724:	40 1f       	adc	r20, r16
     726:	51 1f       	adc	r21, r17
     728:	b9 01       	movw	r22, r18
     72a:	ca 01       	movw	r24, r20
     72c:	1f 91       	pop	r17
     72e:	0f 91       	pop	r16
     730:	ff 90       	pop	r15
     732:	ef 90       	pop	r14
     734:	df 90       	pop	r13
     736:	cf 90       	pop	r12
     738:	bf 90       	pop	r11
     73a:	af 90       	pop	r10
     73c:	08 95       	ret

0000073e <print_data_LCD_speed>:
     73e:	ef 92       	push	r14
     740:	ff 92       	push	r15
     742:	0f 93       	push	r16
     744:	1f 93       	push	r17
     746:	df 93       	push	r29
     748:	cf 93       	push	r28
     74a:	00 d0       	rcall	.+0      	; 0x74c <print_data_LCD_speed+0xe>
     74c:	00 d0       	rcall	.+0      	; 0x74e <print_data_LCD_speed+0x10>
     74e:	cd b7       	in	r28, 0x3d	; 61
     750:	de b7       	in	r29, 0x3e	; 62
     752:	7c 01       	movw	r14, r24
     754:	80 ec       	ldi	r24, 0xC0	; 192
     756:	60 e0       	ldi	r22, 0x00	; 0
     758:	0e 94 1f 02 	call	0x43e	; 0x43e <cmd_LCD_i2c>
     75c:	80 e0       	ldi	r24, 0x00	; 0
     75e:	91 e0       	ldi	r25, 0x01	; 1
     760:	0e 94 7f 02 	call	0x4fe	; 0x4fe <escreve_LCD_i2c>
     764:	80 ec       	ldi	r24, 0xC0	; 192
     766:	60 e0       	ldi	r22, 0x00	; 0
     768:	0e 94 1f 02 	call	0x43e	; 0x43e <cmd_LCD_i2c>
     76c:	c7 01       	movw	r24, r14
     76e:	64 e6       	ldi	r22, 0x64	; 100
     770:	70 e0       	ldi	r23, 0x00	; 0
     772:	0e 94 5e 05 	call	0xabc	; 0xabc <__udivmodhi4>
     776:	86 2f       	mov	r24, r22
     778:	90 e0       	ldi	r25, 0x00	; 0
     77a:	8e 01       	movw	r16, r28
     77c:	0f 5f       	subi	r16, 0xFF	; 255
     77e:	1f 4f       	sbci	r17, 0xFF	; 255
     780:	b8 01       	movw	r22, r16
     782:	4a e0       	ldi	r20, 0x0A	; 10
     784:	50 e0       	ldi	r21, 0x00	; 0
     786:	0e 94 af 05 	call	0xb5e	; 0xb5e <itoa>
     78a:	c8 01       	movw	r24, r16
     78c:	0e 94 7f 02 	call	0x4fe	; 0x4fe <escreve_LCD_i2c>
     790:	88 e0       	ldi	r24, 0x08	; 8
     792:	91 e0       	ldi	r25, 0x01	; 1
     794:	0e 94 7f 02 	call	0x4fe	; 0x4fe <escreve_LCD_i2c>
     798:	c7 01       	movw	r24, r14
     79a:	64 e6       	ldi	r22, 0x64	; 100
     79c:	70 e0       	ldi	r23, 0x00	; 0
     79e:	0e 94 5e 05 	call	0xabc	; 0xabc <__udivmodhi4>
     7a2:	6a e0       	ldi	r22, 0x0A	; 10
     7a4:	70 e0       	ldi	r23, 0x00	; 0
     7a6:	0e 94 5e 05 	call	0xabc	; 0xabc <__udivmodhi4>
     7aa:	86 2f       	mov	r24, r22
     7ac:	90 e0       	ldi	r25, 0x00	; 0
     7ae:	b8 01       	movw	r22, r16
     7b0:	4a e0       	ldi	r20, 0x0A	; 10
     7b2:	50 e0       	ldi	r21, 0x00	; 0
     7b4:	0e 94 af 05 	call	0xb5e	; 0xb5e <itoa>
     7b8:	c8 01       	movw	r24, r16
     7ba:	0e 94 7f 02 	call	0x4fe	; 0x4fe <escreve_LCD_i2c>
     7be:	c7 01       	movw	r24, r14
     7c0:	6a e0       	ldi	r22, 0x0A	; 10
     7c2:	70 e0       	ldi	r23, 0x00	; 0
     7c4:	0e 94 5e 05 	call	0xabc	; 0xabc <__udivmodhi4>
     7c8:	90 e0       	ldi	r25, 0x00	; 0
     7ca:	b8 01       	movw	r22, r16
     7cc:	4a e0       	ldi	r20, 0x0A	; 10
     7ce:	50 e0       	ldi	r21, 0x00	; 0
     7d0:	0e 94 af 05 	call	0xb5e	; 0xb5e <itoa>
     7d4:	c8 01       	movw	r24, r16
     7d6:	0e 94 7f 02 	call	0x4fe	; 0x4fe <escreve_LCD_i2c>
     7da:	0f 90       	pop	r0
     7dc:	0f 90       	pop	r0
     7de:	0f 90       	pop	r0
     7e0:	0f 90       	pop	r0
     7e2:	cf 91       	pop	r28
     7e4:	df 91       	pop	r29
     7e6:	1f 91       	pop	r17
     7e8:	0f 91       	pop	r16
     7ea:	ff 90       	pop	r15
     7ec:	ef 90       	pop	r14
     7ee:	08 95       	ret

000007f0 <print_data_LCD>:
     7f0:	ef 92       	push	r14
     7f2:	ff 92       	push	r15
     7f4:	0f 93       	push	r16
     7f6:	1f 93       	push	r17
     7f8:	df 93       	push	r29
     7fa:	cf 93       	push	r28
     7fc:	00 d0       	rcall	.+0      	; 0x7fe <print_data_LCD+0xe>
     7fe:	00 d0       	rcall	.+0      	; 0x800 <print_data_LCD+0x10>
     800:	cd b7       	in	r28, 0x3d	; 61
     802:	de b7       	in	r29, 0x3e	; 62
     804:	7c 01       	movw	r14, r24
     806:	80 ec       	ldi	r24, 0xC0	; 192
     808:	60 e0       	ldi	r22, 0x00	; 0
     80a:	0e 94 1f 02 	call	0x43e	; 0x43e <cmd_LCD_i2c>
     80e:	80 ec       	ldi	r24, 0xC0	; 192
     810:	60 e0       	ldi	r22, 0x00	; 0
     812:	0e 94 1f 02 	call	0x43e	; 0x43e <cmd_LCD_i2c>
     816:	c7 01       	movw	r24, r14
     818:	68 ee       	ldi	r22, 0xE8	; 232
     81a:	73 e0       	ldi	r23, 0x03	; 3
     81c:	0e 94 5e 05 	call	0xabc	; 0xabc <__udivmodhi4>
     820:	86 2f       	mov	r24, r22
     822:	90 e0       	ldi	r25, 0x00	; 0
     824:	8e 01       	movw	r16, r28
     826:	0f 5f       	subi	r16, 0xFF	; 255
     828:	1f 4f       	sbci	r17, 0xFF	; 255
     82a:	b8 01       	movw	r22, r16
     82c:	4a e0       	ldi	r20, 0x0A	; 10
     82e:	50 e0       	ldi	r21, 0x00	; 0
     830:	0e 94 af 05 	call	0xb5e	; 0xb5e <itoa>
     834:	c8 01       	movw	r24, r16
     836:	0e 94 7f 02 	call	0x4fe	; 0x4fe <escreve_LCD_i2c>
     83a:	c7 01       	movw	r24, r14
     83c:	68 ee       	ldi	r22, 0xE8	; 232
     83e:	73 e0       	ldi	r23, 0x03	; 3
     840:	0e 94 5e 05 	call	0xabc	; 0xabc <__udivmodhi4>
     844:	64 e6       	ldi	r22, 0x64	; 100
     846:	70 e0       	ldi	r23, 0x00	; 0
     848:	0e 94 5e 05 	call	0xabc	; 0xabc <__udivmodhi4>
     84c:	86 2f       	mov	r24, r22
     84e:	90 e0       	ldi	r25, 0x00	; 0
     850:	b8 01       	movw	r22, r16
     852:	4a e0       	ldi	r20, 0x0A	; 10
     854:	50 e0       	ldi	r21, 0x00	; 0
     856:	0e 94 af 05 	call	0xb5e	; 0xb5e <itoa>
     85a:	c8 01       	movw	r24, r16
     85c:	0e 94 7f 02 	call	0x4fe	; 0x4fe <escreve_LCD_i2c>
     860:	88 e0       	ldi	r24, 0x08	; 8
     862:	91 e0       	ldi	r25, 0x01	; 1
     864:	0e 94 7f 02 	call	0x4fe	; 0x4fe <escreve_LCD_i2c>
     868:	c7 01       	movw	r24, r14
     86a:	64 e6       	ldi	r22, 0x64	; 100
     86c:	70 e0       	ldi	r23, 0x00	; 0
     86e:	0e 94 5e 05 	call	0xabc	; 0xabc <__udivmodhi4>
     872:	6a e0       	ldi	r22, 0x0A	; 10
     874:	70 e0       	ldi	r23, 0x00	; 0
     876:	0e 94 5e 05 	call	0xabc	; 0xabc <__udivmodhi4>
     87a:	86 2f       	mov	r24, r22
     87c:	90 e0       	ldi	r25, 0x00	; 0
     87e:	b8 01       	movw	r22, r16
     880:	4a e0       	ldi	r20, 0x0A	; 10
     882:	50 e0       	ldi	r21, 0x00	; 0
     884:	0e 94 af 05 	call	0xb5e	; 0xb5e <itoa>
     888:	c8 01       	movw	r24, r16
     88a:	0e 94 7f 02 	call	0x4fe	; 0x4fe <escreve_LCD_i2c>
     88e:	c7 01       	movw	r24, r14
     890:	6a e0       	ldi	r22, 0x0A	; 10
     892:	70 e0       	ldi	r23, 0x00	; 0
     894:	0e 94 5e 05 	call	0xabc	; 0xabc <__udivmodhi4>
     898:	90 e0       	ldi	r25, 0x00	; 0
     89a:	b8 01       	movw	r22, r16
     89c:	4a e0       	ldi	r20, 0x0A	; 10
     89e:	50 e0       	ldi	r21, 0x00	; 0
     8a0:	0e 94 af 05 	call	0xb5e	; 0xb5e <itoa>
     8a4:	c8 01       	movw	r24, r16
     8a6:	0e 94 7f 02 	call	0x4fe	; 0x4fe <escreve_LCD_i2c>
     8aa:	0f 90       	pop	r0
     8ac:	0f 90       	pop	r0
     8ae:	0f 90       	pop	r0
     8b0:	0f 90       	pop	r0
     8b2:	cf 91       	pop	r28
     8b4:	df 91       	pop	r29
     8b6:	1f 91       	pop	r17
     8b8:	0f 91       	pop	r16
     8ba:	ff 90       	pop	r15
     8bc:	ef 90       	pop	r14
     8be:	08 95       	ret

000008c0 <calc_speed_kmh>:
     8c0:	af 92       	push	r10
     8c2:	bf 92       	push	r11
     8c4:	cf 92       	push	r12
     8c6:	df 92       	push	r13
     8c8:	ef 92       	push	r14
     8ca:	ff 92       	push	r15
     8cc:	0f 93       	push	r16
     8ce:	1f 93       	push	r17
     8d0:	cf 93       	push	r28
     8d2:	df 93       	push	r29
     8d4:	7b 01       	movw	r14, r22
     8d6:	8c 01       	movw	r16, r24
     8d8:	59 01       	movw	r10, r18
     8da:	6a 01       	movw	r12, r20
     8dc:	0e 94 3b 01 	call	0x276	; 0x276 <get_usart_stream>
     8e0:	ec 01       	movw	r28, r24
     8e2:	87 e6       	ldi	r24, 0x67	; 103
     8e4:	90 e0       	ldi	r25, 0x00	; 0
     8e6:	0e 94 3e 01 	call	0x27c	; 0x27c <USART_Init>
     8ea:	89 ee       	ldi	r24, 0xE9	; 233
     8ec:	e8 16       	cp	r14, r24
     8ee:	83 e0       	ldi	r24, 0x03	; 3
     8f0:	f8 06       	cpc	r15, r24
     8f2:	80 e0       	ldi	r24, 0x00	; 0
     8f4:	08 07       	cpc	r16, r24
     8f6:	80 e0       	ldi	r24, 0x00	; 0
     8f8:	18 07       	cpc	r17, r24
     8fa:	70 f1       	brcs	.+92     	; 0x958 <__stack+0x59>
     8fc:	c8 01       	movw	r24, r16
     8fe:	b7 01       	movw	r22, r14
     900:	2a e0       	ldi	r18, 0x0A	; 10
     902:	30 e0       	ldi	r19, 0x00	; 0
     904:	40 e0       	ldi	r20, 0x00	; 0
     906:	50 e0       	ldi	r21, 0x00	; 0
     908:	0e 94 72 05 	call	0xae4	; 0xae4 <__udivmodsi4>
     90c:	ca 01       	movw	r24, r20
     90e:	b9 01       	movw	r22, r18
     910:	a6 01       	movw	r20, r12
     912:	95 01       	movw	r18, r10
     914:	0e 94 3f 05 	call	0xa7e	; 0xa7e <__mulsi3>
     918:	9b 01       	movw	r18, r22
     91a:	ac 01       	movw	r20, r24
     91c:	e6 e0       	ldi	r30, 0x06	; 6
     91e:	22 0f       	add	r18, r18
     920:	33 1f       	adc	r19, r19
     922:	44 1f       	adc	r20, r20
     924:	55 1f       	adc	r21, r21
     926:	ea 95       	dec	r30
     928:	d1 f7       	brne	.-12     	; 0x91e <__stack+0x1f>
     92a:	26 1b       	sub	r18, r22
     92c:	37 0b       	sbc	r19, r23
     92e:	48 0b       	sbc	r20, r24
     930:	59 0b       	sbc	r21, r25
     932:	b9 01       	movw	r22, r18
     934:	ca 01       	movw	r24, r20
     936:	28 ee       	ldi	r18, 0xE8	; 232
     938:	33 e0       	ldi	r19, 0x03	; 3
     93a:	40 e0       	ldi	r20, 0x00	; 0
     93c:	50 e0       	ldi	r21, 0x00	; 0
     93e:	0e 94 72 05 	call	0xae4	; 0xae4 <__udivmodsi4>
     942:	ca 01       	movw	r24, r20
     944:	b9 01       	movw	r22, r18
     946:	24 e2       	ldi	r18, 0x24	; 36
     948:	30 e0       	ldi	r19, 0x00	; 0
     94a:	40 e0       	ldi	r20, 0x00	; 0
     94c:	50 e0       	ldi	r21, 0x00	; 0
     94e:	0e 94 3f 05 	call	0xa7e	; 0xa7e <__mulsi3>
     952:	7b 01       	movw	r14, r22
     954:	8c 01       	movw	r16, r24
     956:	27 c0       	rjmp	.+78     	; 0x9a6 <__stack+0xa7>
     958:	c8 01       	movw	r24, r16
     95a:	b7 01       	movw	r22, r14
     95c:	26 e0       	ldi	r18, 0x06	; 6
     95e:	66 0f       	add	r22, r22
     960:	77 1f       	adc	r23, r23
     962:	88 1f       	adc	r24, r24
     964:	99 1f       	adc	r25, r25
     966:	2a 95       	dec	r18
     968:	d1 f7       	brne	.-12     	; 0x95e <__stack+0x5f>
     96a:	6e 19       	sub	r22, r14
     96c:	7f 09       	sbc	r23, r15
     96e:	80 0b       	sbc	r24, r16
     970:	91 0b       	sbc	r25, r17
     972:	a6 01       	movw	r20, r12
     974:	95 01       	movw	r18, r10
     976:	0e 94 3f 05 	call	0xa7e	; 0xa7e <__mulsi3>
     97a:	28 ee       	ldi	r18, 0xE8	; 232
     97c:	33 e0       	ldi	r19, 0x03	; 3
     97e:	40 e0       	ldi	r20, 0x00	; 0
     980:	50 e0       	ldi	r21, 0x00	; 0
     982:	0e 94 72 05 	call	0xae4	; 0xae4 <__udivmodsi4>
     986:	ca 01       	movw	r24, r20
     988:	b9 01       	movw	r22, r18
     98a:	24 e2       	ldi	r18, 0x24	; 36
     98c:	30 e0       	ldi	r19, 0x00	; 0
     98e:	40 e0       	ldi	r20, 0x00	; 0
     990:	50 e0       	ldi	r21, 0x00	; 0
     992:	0e 94 3f 05 	call	0xa7e	; 0xa7e <__mulsi3>
     996:	2a e0       	ldi	r18, 0x0A	; 10
     998:	30 e0       	ldi	r19, 0x00	; 0
     99a:	40 e0       	ldi	r20, 0x00	; 0
     99c:	50 e0       	ldi	r21, 0x00	; 0
     99e:	0e 94 72 05 	call	0xae4	; 0xae4 <__udivmodsi4>
     9a2:	79 01       	movw	r14, r18
     9a4:	8a 01       	movw	r16, r20
     9a6:	ad b7       	in	r26, 0x3d	; 61
     9a8:	be b7       	in	r27, 0x3e	; 62
     9aa:	18 97       	sbiw	r26, 0x08	; 8
     9ac:	0f b6       	in	r0, 0x3f	; 63
     9ae:	f8 94       	cli
     9b0:	be bf       	out	0x3e, r27	; 62
     9b2:	0f be       	out	0x3f, r0	; 63
     9b4:	ad bf       	out	0x3d, r26	; 61
     9b6:	ed b7       	in	r30, 0x3d	; 61
     9b8:	fe b7       	in	r31, 0x3e	; 62
     9ba:	31 96       	adiw	r30, 0x01	; 1
     9bc:	12 96       	adiw	r26, 0x02	; 2
     9be:	dc 93       	st	X, r29
     9c0:	ce 93       	st	-X, r28
     9c2:	11 97       	sbiw	r26, 0x01	; 1
     9c4:	8a e0       	ldi	r24, 0x0A	; 10
     9c6:	91 e0       	ldi	r25, 0x01	; 1
     9c8:	93 83       	std	Z+3, r25	; 0x03
     9ca:	82 83       	std	Z+2, r24	; 0x02
     9cc:	e4 82       	std	Z+4, r14	; 0x04
     9ce:	f5 82       	std	Z+5, r15	; 0x05
     9d0:	06 83       	std	Z+6, r16	; 0x06
     9d2:	17 83       	std	Z+7, r17	; 0x07
     9d4:	0e 94 d0 05 	call	0xba0	; 0xba0 <fprintf>
     9d8:	8d b7       	in	r24, 0x3d	; 61
     9da:	9e b7       	in	r25, 0x3e	; 62
     9dc:	08 96       	adiw	r24, 0x08	; 8
     9de:	0f b6       	in	r0, 0x3f	; 63
     9e0:	f8 94       	cli
     9e2:	9e bf       	out	0x3e, r25	; 62
     9e4:	0f be       	out	0x3f, r0	; 63
     9e6:	8d bf       	out	0x3d, r24	; 61
     9e8:	b7 01       	movw	r22, r14
     9ea:	c8 01       	movw	r24, r16
     9ec:	df 91       	pop	r29
     9ee:	cf 91       	pop	r28
     9f0:	1f 91       	pop	r17
     9f2:	0f 91       	pop	r16
     9f4:	ff 90       	pop	r15
     9f6:	ef 90       	pop	r14
     9f8:	df 90       	pop	r13
     9fa:	cf 90       	pop	r12
     9fc:	bf 90       	pop	r11
     9fe:	af 90       	pop	r10
     a00:	08 95       	ret

00000a02 <main>:
     a02:	92 e0       	ldi	r25, 0x02	; 2
     a04:	94 bd       	out	0x24, r25	; 36
     a06:	85 e0       	ldi	r24, 0x05	; 5
     a08:	85 bd       	out	0x25, r24	; 37
     a0a:	80 91 6e 00 	lds	r24, 0x006E
     a0e:	82 60       	ori	r24, 0x02	; 2
     a10:	80 93 6e 00 	sts	0x006E, r24
     a14:	88 ec       	ldi	r24, 0xC8	; 200
     a16:	87 bd       	out	0x27, r24	; 39
     a18:	8c e0       	ldi	r24, 0x0C	; 12
     a1a:	80 93 69 00 	sts	0x0069, r24
     a1e:	9d bb       	out	0x1d, r25	; 29
     a20:	0e 94 64 00 	call	0xc8	; 0xc8 <TWI_Master_Initialise>
     a24:	78 94       	sei
     a26:	0e 94 8d 02 	call	0x51a	; 0x51a <inic_LCD_4bits_i2c>
     a2a:	8f e0       	ldi	r24, 0x0F	; 15
     a2c:	91 e0       	ldi	r25, 0x01	; 1
     a2e:	0e 94 7f 02 	call	0x4fe	; 0x4fe <escreve_LCD_i2c>
     a32:	80 91 56 01 	lds	r24, 0x0156
     a36:	90 91 57 01 	lds	r25, 0x0157
     a3a:	60 91 54 01 	lds	r22, 0x0154
     a3e:	70 91 55 01 	lds	r23, 0x0155
     a42:	40 e0       	ldi	r20, 0x00	; 0
     a44:	52 e3       	ldi	r21, 0x32	; 50
     a46:	28 ec       	ldi	r18, 0xC8	; 200
     a48:	30 e0       	ldi	r19, 0x00	; 0
     a4a:	0e 94 63 03 	call	0x6c6	; 0x6c6 <calc_real_time_ms>
     a4e:	9b 01       	movw	r18, r22
     a50:	40 e0       	ldi	r20, 0x00	; 0
     a52:	50 e0       	ldi	r21, 0x00	; 0
     a54:	60 e4       	ldi	r22, 0x40	; 64
     a56:	72 e4       	ldi	r23, 0x42	; 66
     a58:	8f e0       	ldi	r24, 0x0F	; 15
     a5a:	90 e0       	ldi	r25, 0x00	; 0
     a5c:	0e 94 94 05 	call	0xb28	; 0xb28 <__divmodsi4>
     a60:	40 e0       	ldi	r20, 0x00	; 0
     a62:	50 e0       	ldi	r21, 0x00	; 0
     a64:	ca 01       	movw	r24, r20
     a66:	b9 01       	movw	r22, r18
     a68:	2c e1       	ldi	r18, 0x1C	; 28
     a6a:	30 e0       	ldi	r19, 0x00	; 0
     a6c:	40 e0       	ldi	r20, 0x00	; 0
     a6e:	50 e0       	ldi	r21, 0x00	; 0
     a70:	0e 94 60 04 	call	0x8c0	; 0x8c0 <calc_speed_kmh>
     a74:	dc 01       	movw	r26, r24
     a76:	cb 01       	movw	r24, r22
     a78:	0e 94 9f 03 	call	0x73e	; 0x73e <print_data_LCD_speed>
     a7c:	da cf       	rjmp	.-76     	; 0xa32 <main+0x30>

00000a7e <__mulsi3>:
     a7e:	62 9f       	mul	r22, r18
     a80:	d0 01       	movw	r26, r0
     a82:	73 9f       	mul	r23, r19
     a84:	f0 01       	movw	r30, r0
     a86:	82 9f       	mul	r24, r18
     a88:	e0 0d       	add	r30, r0
     a8a:	f1 1d       	adc	r31, r1
     a8c:	64 9f       	mul	r22, r20
     a8e:	e0 0d       	add	r30, r0
     a90:	f1 1d       	adc	r31, r1
     a92:	92 9f       	mul	r25, r18
     a94:	f0 0d       	add	r31, r0
     a96:	83 9f       	mul	r24, r19
     a98:	f0 0d       	add	r31, r0
     a9a:	74 9f       	mul	r23, r20
     a9c:	f0 0d       	add	r31, r0
     a9e:	65 9f       	mul	r22, r21
     aa0:	f0 0d       	add	r31, r0
     aa2:	99 27       	eor	r25, r25
     aa4:	72 9f       	mul	r23, r18
     aa6:	b0 0d       	add	r27, r0
     aa8:	e1 1d       	adc	r30, r1
     aaa:	f9 1f       	adc	r31, r25
     aac:	63 9f       	mul	r22, r19
     aae:	b0 0d       	add	r27, r0
     ab0:	e1 1d       	adc	r30, r1
     ab2:	f9 1f       	adc	r31, r25
     ab4:	bd 01       	movw	r22, r26
     ab6:	cf 01       	movw	r24, r30
     ab8:	11 24       	eor	r1, r1
     aba:	08 95       	ret

00000abc <__udivmodhi4>:
     abc:	aa 1b       	sub	r26, r26
     abe:	bb 1b       	sub	r27, r27
     ac0:	51 e1       	ldi	r21, 0x11	; 17
     ac2:	07 c0       	rjmp	.+14     	; 0xad2 <__udivmodhi4_ep>

00000ac4 <__udivmodhi4_loop>:
     ac4:	aa 1f       	adc	r26, r26
     ac6:	bb 1f       	adc	r27, r27
     ac8:	a6 17       	cp	r26, r22
     aca:	b7 07       	cpc	r27, r23
     acc:	10 f0       	brcs	.+4      	; 0xad2 <__udivmodhi4_ep>
     ace:	a6 1b       	sub	r26, r22
     ad0:	b7 0b       	sbc	r27, r23

00000ad2 <__udivmodhi4_ep>:
     ad2:	88 1f       	adc	r24, r24
     ad4:	99 1f       	adc	r25, r25
     ad6:	5a 95       	dec	r21
     ad8:	a9 f7       	brne	.-22     	; 0xac4 <__udivmodhi4_loop>
     ada:	80 95       	com	r24
     adc:	90 95       	com	r25
     ade:	bc 01       	movw	r22, r24
     ae0:	cd 01       	movw	r24, r26
     ae2:	08 95       	ret

00000ae4 <__udivmodsi4>:
     ae4:	a1 e2       	ldi	r26, 0x21	; 33
     ae6:	1a 2e       	mov	r1, r26
     ae8:	aa 1b       	sub	r26, r26
     aea:	bb 1b       	sub	r27, r27
     aec:	fd 01       	movw	r30, r26
     aee:	0d c0       	rjmp	.+26     	; 0xb0a <__udivmodsi4_ep>

00000af0 <__udivmodsi4_loop>:
     af0:	aa 1f       	adc	r26, r26
     af2:	bb 1f       	adc	r27, r27
     af4:	ee 1f       	adc	r30, r30
     af6:	ff 1f       	adc	r31, r31
     af8:	a2 17       	cp	r26, r18
     afa:	b3 07       	cpc	r27, r19
     afc:	e4 07       	cpc	r30, r20
     afe:	f5 07       	cpc	r31, r21
     b00:	20 f0       	brcs	.+8      	; 0xb0a <__udivmodsi4_ep>
     b02:	a2 1b       	sub	r26, r18
     b04:	b3 0b       	sbc	r27, r19
     b06:	e4 0b       	sbc	r30, r20
     b08:	f5 0b       	sbc	r31, r21

00000b0a <__udivmodsi4_ep>:
     b0a:	66 1f       	adc	r22, r22
     b0c:	77 1f       	adc	r23, r23
     b0e:	88 1f       	adc	r24, r24
     b10:	99 1f       	adc	r25, r25
     b12:	1a 94       	dec	r1
     b14:	69 f7       	brne	.-38     	; 0xaf0 <__udivmodsi4_loop>
     b16:	60 95       	com	r22
     b18:	70 95       	com	r23
     b1a:	80 95       	com	r24
     b1c:	90 95       	com	r25
     b1e:	9b 01       	movw	r18, r22
     b20:	ac 01       	movw	r20, r24
     b22:	bd 01       	movw	r22, r26
     b24:	cf 01       	movw	r24, r30
     b26:	08 95       	ret

00000b28 <__divmodsi4>:
     b28:	97 fb       	bst	r25, 7
     b2a:	09 2e       	mov	r0, r25
     b2c:	05 26       	eor	r0, r21
     b2e:	0e d0       	rcall	.+28     	; 0xb4c <__divmodsi4_neg1>
     b30:	57 fd       	sbrc	r21, 7
     b32:	04 d0       	rcall	.+8      	; 0xb3c <__divmodsi4_neg2>
     b34:	d7 df       	rcall	.-82     	; 0xae4 <__udivmodsi4>
     b36:	0a d0       	rcall	.+20     	; 0xb4c <__divmodsi4_neg1>
     b38:	00 1c       	adc	r0, r0
     b3a:	38 f4       	brcc	.+14     	; 0xb4a <__divmodsi4_exit>

00000b3c <__divmodsi4_neg2>:
     b3c:	50 95       	com	r21
     b3e:	40 95       	com	r20
     b40:	30 95       	com	r19
     b42:	21 95       	neg	r18
     b44:	3f 4f       	sbci	r19, 0xFF	; 255
     b46:	4f 4f       	sbci	r20, 0xFF	; 255
     b48:	5f 4f       	sbci	r21, 0xFF	; 255

00000b4a <__divmodsi4_exit>:
     b4a:	08 95       	ret

00000b4c <__divmodsi4_neg1>:
     b4c:	f6 f7       	brtc	.-4      	; 0xb4a <__divmodsi4_exit>
     b4e:	90 95       	com	r25
     b50:	80 95       	com	r24
     b52:	70 95       	com	r23
     b54:	61 95       	neg	r22
     b56:	7f 4f       	sbci	r23, 0xFF	; 255
     b58:	8f 4f       	sbci	r24, 0xFF	; 255
     b5a:	9f 4f       	sbci	r25, 0xFF	; 255
     b5c:	08 95       	ret

00000b5e <itoa>:
     b5e:	fb 01       	movw	r30, r22
     b60:	9f 01       	movw	r18, r30
     b62:	e8 94       	clt
     b64:	42 30       	cpi	r20, 0x02	; 2
     b66:	c4 f0       	brlt	.+48     	; 0xb98 <itoa+0x3a>
     b68:	45 32       	cpi	r20, 0x25	; 37
     b6a:	b4 f4       	brge	.+44     	; 0xb98 <itoa+0x3a>
     b6c:	4a 30       	cpi	r20, 0x0A	; 10
     b6e:	29 f4       	brne	.+10     	; 0xb7a <itoa+0x1c>
     b70:	97 fb       	bst	r25, 7
     b72:	1e f4       	brtc	.+6      	; 0xb7a <itoa+0x1c>
     b74:	90 95       	com	r25
     b76:	81 95       	neg	r24
     b78:	9f 4f       	sbci	r25, 0xFF	; 255
     b7a:	64 2f       	mov	r22, r20
     b7c:	77 27       	eor	r23, r23
     b7e:	0e 94 5e 05 	call	0xabc	; 0xabc <__udivmodhi4>
     b82:	80 5d       	subi	r24, 0xD0	; 208
     b84:	8a 33       	cpi	r24, 0x3A	; 58
     b86:	0c f0       	brlt	.+2      	; 0xb8a <itoa+0x2c>
     b88:	89 5d       	subi	r24, 0xD9	; 217
     b8a:	81 93       	st	Z+, r24
     b8c:	cb 01       	movw	r24, r22
     b8e:	00 97       	sbiw	r24, 0x00	; 0
     b90:	a1 f7       	brne	.-24     	; 0xb7a <itoa+0x1c>
     b92:	16 f4       	brtc	.+4      	; 0xb98 <itoa+0x3a>
     b94:	5d e2       	ldi	r21, 0x2D	; 45
     b96:	51 93       	st	Z+, r21
     b98:	10 82       	st	Z, r1
     b9a:	c9 01       	movw	r24, r18
     b9c:	0c 94 d7 07 	jmp	0xfae	; 0xfae <strrev>

00000ba0 <fprintf>:
     ba0:	a0 e0       	ldi	r26, 0x00	; 0
     ba2:	b0 e0       	ldi	r27, 0x00	; 0
     ba4:	e6 ed       	ldi	r30, 0xD6	; 214
     ba6:	f5 e0       	ldi	r31, 0x05	; 5
     ba8:	0c 94 81 08 	jmp	0x1102	; 0x1102 <__prologue_saves__+0x20>
     bac:	9e 01       	movw	r18, r28
     bae:	27 5f       	subi	r18, 0xF7	; 247
     bb0:	3f 4f       	sbci	r19, 0xFF	; 255
     bb2:	8d 81       	ldd	r24, Y+5	; 0x05
     bb4:	9e 81       	ldd	r25, Y+6	; 0x06
     bb6:	6f 81       	ldd	r22, Y+7	; 0x07
     bb8:	78 85       	ldd	r23, Y+8	; 0x08
     bba:	a9 01       	movw	r20, r18
     bbc:	0e 94 e4 05 	call	0xbc8	; 0xbc8 <vfprintf>
     bc0:	20 96       	adiw	r28, 0x00	; 0
     bc2:	e2 e0       	ldi	r30, 0x02	; 2
     bc4:	0c 94 9d 08 	jmp	0x113a	; 0x113a <__epilogue_restores__+0x20>

00000bc8 <vfprintf>:
     bc8:	ab e0       	ldi	r26, 0x0B	; 11
     bca:	b0 e0       	ldi	r27, 0x00	; 0
     bcc:	ea ee       	ldi	r30, 0xEA	; 234
     bce:	f5 e0       	ldi	r31, 0x05	; 5
     bd0:	0c 94 71 08 	jmp	0x10e2	; 0x10e2 <__prologue_saves__>
     bd4:	3c 01       	movw	r6, r24
     bd6:	2b 01       	movw	r4, r22
     bd8:	5a 01       	movw	r10, r20
     bda:	fc 01       	movw	r30, r24
     bdc:	17 82       	std	Z+7, r1	; 0x07
     bde:	16 82       	std	Z+6, r1	; 0x06
     be0:	83 81       	ldd	r24, Z+3	; 0x03
     be2:	81 fd       	sbrc	r24, 1
     be4:	03 c0       	rjmp	.+6      	; 0xbec <vfprintf+0x24>
     be6:	6f ef       	ldi	r22, 0xFF	; 255
     be8:	7f ef       	ldi	r23, 0xFF	; 255
     bea:	c6 c1       	rjmp	.+908    	; 0xf78 <vfprintf+0x3b0>
     bec:	9a e0       	ldi	r25, 0x0A	; 10
     bee:	89 2e       	mov	r8, r25
     bf0:	1e 01       	movw	r2, r28
     bf2:	08 94       	sec
     bf4:	21 1c       	adc	r2, r1
     bf6:	31 1c       	adc	r3, r1
     bf8:	f3 01       	movw	r30, r6
     bfa:	23 81       	ldd	r18, Z+3	; 0x03
     bfc:	f2 01       	movw	r30, r4
     bfe:	23 fd       	sbrc	r18, 3
     c00:	85 91       	lpm	r24, Z+
     c02:	23 ff       	sbrs	r18, 3
     c04:	81 91       	ld	r24, Z+
     c06:	2f 01       	movw	r4, r30
     c08:	88 23       	and	r24, r24
     c0a:	09 f4       	brne	.+2      	; 0xc0e <vfprintf+0x46>
     c0c:	b2 c1       	rjmp	.+868    	; 0xf72 <vfprintf+0x3aa>
     c0e:	85 32       	cpi	r24, 0x25	; 37
     c10:	39 f4       	brne	.+14     	; 0xc20 <vfprintf+0x58>
     c12:	23 fd       	sbrc	r18, 3
     c14:	85 91       	lpm	r24, Z+
     c16:	23 ff       	sbrs	r18, 3
     c18:	81 91       	ld	r24, Z+
     c1a:	2f 01       	movw	r4, r30
     c1c:	85 32       	cpi	r24, 0x25	; 37
     c1e:	29 f4       	brne	.+10     	; 0xc2a <vfprintf+0x62>
     c20:	90 e0       	ldi	r25, 0x00	; 0
     c22:	b3 01       	movw	r22, r6
     c24:	0e 94 e7 07 	call	0xfce	; 0xfce <fputc>
     c28:	e7 cf       	rjmp	.-50     	; 0xbf8 <vfprintf+0x30>
     c2a:	98 2f       	mov	r25, r24
     c2c:	ff 24       	eor	r15, r15
     c2e:	ee 24       	eor	r14, r14
     c30:	99 24       	eor	r9, r9
     c32:	ff e1       	ldi	r31, 0x1F	; 31
     c34:	ff 15       	cp	r31, r15
     c36:	d0 f0       	brcs	.+52     	; 0xc6c <vfprintf+0xa4>
     c38:	9b 32       	cpi	r25, 0x2B	; 43
     c3a:	69 f0       	breq	.+26     	; 0xc56 <vfprintf+0x8e>
     c3c:	9c 32       	cpi	r25, 0x2C	; 44
     c3e:	28 f4       	brcc	.+10     	; 0xc4a <vfprintf+0x82>
     c40:	90 32       	cpi	r25, 0x20	; 32
     c42:	59 f0       	breq	.+22     	; 0xc5a <vfprintf+0x92>
     c44:	93 32       	cpi	r25, 0x23	; 35
     c46:	91 f4       	brne	.+36     	; 0xc6c <vfprintf+0xa4>
     c48:	0e c0       	rjmp	.+28     	; 0xc66 <vfprintf+0x9e>
     c4a:	9d 32       	cpi	r25, 0x2D	; 45
     c4c:	49 f0       	breq	.+18     	; 0xc60 <vfprintf+0x98>
     c4e:	90 33       	cpi	r25, 0x30	; 48
     c50:	69 f4       	brne	.+26     	; 0xc6c <vfprintf+0xa4>
     c52:	41 e0       	ldi	r20, 0x01	; 1
     c54:	24 c0       	rjmp	.+72     	; 0xc9e <vfprintf+0xd6>
     c56:	52 e0       	ldi	r21, 0x02	; 2
     c58:	f5 2a       	or	r15, r21
     c5a:	84 e0       	ldi	r24, 0x04	; 4
     c5c:	f8 2a       	or	r15, r24
     c5e:	28 c0       	rjmp	.+80     	; 0xcb0 <vfprintf+0xe8>
     c60:	98 e0       	ldi	r25, 0x08	; 8
     c62:	f9 2a       	or	r15, r25
     c64:	25 c0       	rjmp	.+74     	; 0xcb0 <vfprintf+0xe8>
     c66:	e0 e1       	ldi	r30, 0x10	; 16
     c68:	fe 2a       	or	r15, r30
     c6a:	22 c0       	rjmp	.+68     	; 0xcb0 <vfprintf+0xe8>
     c6c:	f7 fc       	sbrc	r15, 7
     c6e:	29 c0       	rjmp	.+82     	; 0xcc2 <vfprintf+0xfa>
     c70:	89 2f       	mov	r24, r25
     c72:	80 53       	subi	r24, 0x30	; 48
     c74:	8a 30       	cpi	r24, 0x0A	; 10
     c76:	70 f4       	brcc	.+28     	; 0xc94 <vfprintf+0xcc>
     c78:	f6 fe       	sbrs	r15, 6
     c7a:	05 c0       	rjmp	.+10     	; 0xc86 <vfprintf+0xbe>
     c7c:	98 9c       	mul	r9, r8
     c7e:	90 2c       	mov	r9, r0
     c80:	11 24       	eor	r1, r1
     c82:	98 0e       	add	r9, r24
     c84:	15 c0       	rjmp	.+42     	; 0xcb0 <vfprintf+0xe8>
     c86:	e8 9c       	mul	r14, r8
     c88:	e0 2c       	mov	r14, r0
     c8a:	11 24       	eor	r1, r1
     c8c:	e8 0e       	add	r14, r24
     c8e:	f0 e2       	ldi	r31, 0x20	; 32
     c90:	ff 2a       	or	r15, r31
     c92:	0e c0       	rjmp	.+28     	; 0xcb0 <vfprintf+0xe8>
     c94:	9e 32       	cpi	r25, 0x2E	; 46
     c96:	29 f4       	brne	.+10     	; 0xca2 <vfprintf+0xda>
     c98:	f6 fc       	sbrc	r15, 6
     c9a:	6b c1       	rjmp	.+726    	; 0xf72 <vfprintf+0x3aa>
     c9c:	40 e4       	ldi	r20, 0x40	; 64
     c9e:	f4 2a       	or	r15, r20
     ca0:	07 c0       	rjmp	.+14     	; 0xcb0 <vfprintf+0xe8>
     ca2:	9c 36       	cpi	r25, 0x6C	; 108
     ca4:	19 f4       	brne	.+6      	; 0xcac <vfprintf+0xe4>
     ca6:	50 e8       	ldi	r21, 0x80	; 128
     ca8:	f5 2a       	or	r15, r21
     caa:	02 c0       	rjmp	.+4      	; 0xcb0 <vfprintf+0xe8>
     cac:	98 36       	cpi	r25, 0x68	; 104
     cae:	49 f4       	brne	.+18     	; 0xcc2 <vfprintf+0xfa>
     cb0:	f2 01       	movw	r30, r4
     cb2:	23 fd       	sbrc	r18, 3
     cb4:	95 91       	lpm	r25, Z+
     cb6:	23 ff       	sbrs	r18, 3
     cb8:	91 91       	ld	r25, Z+
     cba:	2f 01       	movw	r4, r30
     cbc:	99 23       	and	r25, r25
     cbe:	09 f0       	breq	.+2      	; 0xcc2 <vfprintf+0xfa>
     cc0:	b8 cf       	rjmp	.-144    	; 0xc32 <vfprintf+0x6a>
     cc2:	89 2f       	mov	r24, r25
     cc4:	85 54       	subi	r24, 0x45	; 69
     cc6:	83 30       	cpi	r24, 0x03	; 3
     cc8:	18 f0       	brcs	.+6      	; 0xcd0 <vfprintf+0x108>
     cca:	80 52       	subi	r24, 0x20	; 32
     ccc:	83 30       	cpi	r24, 0x03	; 3
     cce:	38 f4       	brcc	.+14     	; 0xcde <vfprintf+0x116>
     cd0:	44 e0       	ldi	r20, 0x04	; 4
     cd2:	50 e0       	ldi	r21, 0x00	; 0
     cd4:	a4 0e       	add	r10, r20
     cd6:	b5 1e       	adc	r11, r21
     cd8:	5f e3       	ldi	r21, 0x3F	; 63
     cda:	59 83       	std	Y+1, r21	; 0x01
     cdc:	0f c0       	rjmp	.+30     	; 0xcfc <vfprintf+0x134>
     cde:	93 36       	cpi	r25, 0x63	; 99
     ce0:	31 f0       	breq	.+12     	; 0xcee <vfprintf+0x126>
     ce2:	93 37       	cpi	r25, 0x73	; 115
     ce4:	79 f0       	breq	.+30     	; 0xd04 <vfprintf+0x13c>
     ce6:	93 35       	cpi	r25, 0x53	; 83
     ce8:	09 f0       	breq	.+2      	; 0xcec <vfprintf+0x124>
     cea:	56 c0       	rjmp	.+172    	; 0xd98 <vfprintf+0x1d0>
     cec:	20 c0       	rjmp	.+64     	; 0xd2e <vfprintf+0x166>
     cee:	f5 01       	movw	r30, r10
     cf0:	80 81       	ld	r24, Z
     cf2:	89 83       	std	Y+1, r24	; 0x01
     cf4:	42 e0       	ldi	r20, 0x02	; 2
     cf6:	50 e0       	ldi	r21, 0x00	; 0
     cf8:	a4 0e       	add	r10, r20
     cfa:	b5 1e       	adc	r11, r21
     cfc:	61 01       	movw	r12, r2
     cfe:	01 e0       	ldi	r16, 0x01	; 1
     d00:	10 e0       	ldi	r17, 0x00	; 0
     d02:	12 c0       	rjmp	.+36     	; 0xd28 <vfprintf+0x160>
     d04:	f5 01       	movw	r30, r10
     d06:	c0 80       	ld	r12, Z
     d08:	d1 80       	ldd	r13, Z+1	; 0x01
     d0a:	f6 fc       	sbrc	r15, 6
     d0c:	03 c0       	rjmp	.+6      	; 0xd14 <vfprintf+0x14c>
     d0e:	6f ef       	ldi	r22, 0xFF	; 255
     d10:	7f ef       	ldi	r23, 0xFF	; 255
     d12:	02 c0       	rjmp	.+4      	; 0xd18 <vfprintf+0x150>
     d14:	69 2d       	mov	r22, r9
     d16:	70 e0       	ldi	r23, 0x00	; 0
     d18:	42 e0       	ldi	r20, 0x02	; 2
     d1a:	50 e0       	ldi	r21, 0x00	; 0
     d1c:	a4 0e       	add	r10, r20
     d1e:	b5 1e       	adc	r11, r21
     d20:	c6 01       	movw	r24, r12
     d22:	0e 94 cc 07 	call	0xf98	; 0xf98 <strnlen>
     d26:	8c 01       	movw	r16, r24
     d28:	5f e7       	ldi	r21, 0x7F	; 127
     d2a:	f5 22       	and	r15, r21
     d2c:	14 c0       	rjmp	.+40     	; 0xd56 <vfprintf+0x18e>
     d2e:	f5 01       	movw	r30, r10
     d30:	c0 80       	ld	r12, Z
     d32:	d1 80       	ldd	r13, Z+1	; 0x01
     d34:	f6 fc       	sbrc	r15, 6
     d36:	03 c0       	rjmp	.+6      	; 0xd3e <vfprintf+0x176>
     d38:	6f ef       	ldi	r22, 0xFF	; 255
     d3a:	7f ef       	ldi	r23, 0xFF	; 255
     d3c:	02 c0       	rjmp	.+4      	; 0xd42 <vfprintf+0x17a>
     d3e:	69 2d       	mov	r22, r9
     d40:	70 e0       	ldi	r23, 0x00	; 0
     d42:	42 e0       	ldi	r20, 0x02	; 2
     d44:	50 e0       	ldi	r21, 0x00	; 0
     d46:	a4 0e       	add	r10, r20
     d48:	b5 1e       	adc	r11, r21
     d4a:	c6 01       	movw	r24, r12
     d4c:	0e 94 c1 07 	call	0xf82	; 0xf82 <strnlen_P>
     d50:	8c 01       	movw	r16, r24
     d52:	50 e8       	ldi	r21, 0x80	; 128
     d54:	f5 2a       	or	r15, r21
     d56:	f3 fe       	sbrs	r15, 3
     d58:	07 c0       	rjmp	.+14     	; 0xd68 <vfprintf+0x1a0>
     d5a:	1a c0       	rjmp	.+52     	; 0xd90 <vfprintf+0x1c8>
     d5c:	80 e2       	ldi	r24, 0x20	; 32
     d5e:	90 e0       	ldi	r25, 0x00	; 0
     d60:	b3 01       	movw	r22, r6
     d62:	0e 94 e7 07 	call	0xfce	; 0xfce <fputc>
     d66:	ea 94       	dec	r14
     d68:	8e 2d       	mov	r24, r14
     d6a:	90 e0       	ldi	r25, 0x00	; 0
     d6c:	08 17       	cp	r16, r24
     d6e:	19 07       	cpc	r17, r25
     d70:	a8 f3       	brcs	.-22     	; 0xd5c <vfprintf+0x194>
     d72:	0e c0       	rjmp	.+28     	; 0xd90 <vfprintf+0x1c8>
     d74:	f6 01       	movw	r30, r12
     d76:	f7 fc       	sbrc	r15, 7
     d78:	85 91       	lpm	r24, Z+
     d7a:	f7 fe       	sbrs	r15, 7
     d7c:	81 91       	ld	r24, Z+
     d7e:	6f 01       	movw	r12, r30
     d80:	90 e0       	ldi	r25, 0x00	; 0
     d82:	b3 01       	movw	r22, r6
     d84:	0e 94 e7 07 	call	0xfce	; 0xfce <fputc>
     d88:	e1 10       	cpse	r14, r1
     d8a:	ea 94       	dec	r14
     d8c:	01 50       	subi	r16, 0x01	; 1
     d8e:	10 40       	sbci	r17, 0x00	; 0
     d90:	01 15       	cp	r16, r1
     d92:	11 05       	cpc	r17, r1
     d94:	79 f7       	brne	.-34     	; 0xd74 <vfprintf+0x1ac>
     d96:	ea c0       	rjmp	.+468    	; 0xf6c <vfprintf+0x3a4>
     d98:	94 36       	cpi	r25, 0x64	; 100
     d9a:	11 f0       	breq	.+4      	; 0xda0 <vfprintf+0x1d8>
     d9c:	99 36       	cpi	r25, 0x69	; 105
     d9e:	69 f5       	brne	.+90     	; 0xdfa <vfprintf+0x232>
     da0:	f7 fe       	sbrs	r15, 7
     da2:	08 c0       	rjmp	.+16     	; 0xdb4 <vfprintf+0x1ec>
     da4:	f5 01       	movw	r30, r10
     da6:	20 81       	ld	r18, Z
     da8:	31 81       	ldd	r19, Z+1	; 0x01
     daa:	42 81       	ldd	r20, Z+2	; 0x02
     dac:	53 81       	ldd	r21, Z+3	; 0x03
     dae:	84 e0       	ldi	r24, 0x04	; 4
     db0:	90 e0       	ldi	r25, 0x00	; 0
     db2:	0a c0       	rjmp	.+20     	; 0xdc8 <vfprintf+0x200>
     db4:	f5 01       	movw	r30, r10
     db6:	80 81       	ld	r24, Z
     db8:	91 81       	ldd	r25, Z+1	; 0x01
     dba:	9c 01       	movw	r18, r24
     dbc:	44 27       	eor	r20, r20
     dbe:	37 fd       	sbrc	r19, 7
     dc0:	40 95       	com	r20
     dc2:	54 2f       	mov	r21, r20
     dc4:	82 e0       	ldi	r24, 0x02	; 2
     dc6:	90 e0       	ldi	r25, 0x00	; 0
     dc8:	a8 0e       	add	r10, r24
     dca:	b9 1e       	adc	r11, r25
     dcc:	9f e6       	ldi	r25, 0x6F	; 111
     dce:	f9 22       	and	r15, r25
     dd0:	57 ff       	sbrs	r21, 7
     dd2:	09 c0       	rjmp	.+18     	; 0xde6 <vfprintf+0x21e>
     dd4:	50 95       	com	r21
     dd6:	40 95       	com	r20
     dd8:	30 95       	com	r19
     dda:	21 95       	neg	r18
     ddc:	3f 4f       	sbci	r19, 0xFF	; 255
     dde:	4f 4f       	sbci	r20, 0xFF	; 255
     de0:	5f 4f       	sbci	r21, 0xFF	; 255
     de2:	e0 e8       	ldi	r30, 0x80	; 128
     de4:	fe 2a       	or	r15, r30
     de6:	ca 01       	movw	r24, r20
     de8:	b9 01       	movw	r22, r18
     dea:	a1 01       	movw	r20, r2
     dec:	2a e0       	ldi	r18, 0x0A	; 10
     dee:	30 e0       	ldi	r19, 0x00	; 0
     df0:	0e 94 13 08 	call	0x1026	; 0x1026 <__ultoa_invert>
     df4:	d8 2e       	mov	r13, r24
     df6:	d2 18       	sub	r13, r2
     df8:	40 c0       	rjmp	.+128    	; 0xe7a <vfprintf+0x2b2>
     dfa:	95 37       	cpi	r25, 0x75	; 117
     dfc:	29 f4       	brne	.+10     	; 0xe08 <vfprintf+0x240>
     dfe:	1f 2d       	mov	r17, r15
     e00:	1f 7e       	andi	r17, 0xEF	; 239
     e02:	2a e0       	ldi	r18, 0x0A	; 10
     e04:	30 e0       	ldi	r19, 0x00	; 0
     e06:	1d c0       	rjmp	.+58     	; 0xe42 <vfprintf+0x27a>
     e08:	1f 2d       	mov	r17, r15
     e0a:	19 7f       	andi	r17, 0xF9	; 249
     e0c:	9f 36       	cpi	r25, 0x6F	; 111
     e0e:	61 f0       	breq	.+24     	; 0xe28 <vfprintf+0x260>
     e10:	90 37       	cpi	r25, 0x70	; 112
     e12:	20 f4       	brcc	.+8      	; 0xe1c <vfprintf+0x254>
     e14:	98 35       	cpi	r25, 0x58	; 88
     e16:	09 f0       	breq	.+2      	; 0xe1a <vfprintf+0x252>
     e18:	ac c0       	rjmp	.+344    	; 0xf72 <vfprintf+0x3aa>
     e1a:	0f c0       	rjmp	.+30     	; 0xe3a <vfprintf+0x272>
     e1c:	90 37       	cpi	r25, 0x70	; 112
     e1e:	39 f0       	breq	.+14     	; 0xe2e <vfprintf+0x266>
     e20:	98 37       	cpi	r25, 0x78	; 120
     e22:	09 f0       	breq	.+2      	; 0xe26 <vfprintf+0x25e>
     e24:	a6 c0       	rjmp	.+332    	; 0xf72 <vfprintf+0x3aa>
     e26:	04 c0       	rjmp	.+8      	; 0xe30 <vfprintf+0x268>
     e28:	28 e0       	ldi	r18, 0x08	; 8
     e2a:	30 e0       	ldi	r19, 0x00	; 0
     e2c:	0a c0       	rjmp	.+20     	; 0xe42 <vfprintf+0x27a>
     e2e:	10 61       	ori	r17, 0x10	; 16
     e30:	14 fd       	sbrc	r17, 4
     e32:	14 60       	ori	r17, 0x04	; 4
     e34:	20 e1       	ldi	r18, 0x10	; 16
     e36:	30 e0       	ldi	r19, 0x00	; 0
     e38:	04 c0       	rjmp	.+8      	; 0xe42 <vfprintf+0x27a>
     e3a:	14 fd       	sbrc	r17, 4
     e3c:	16 60       	ori	r17, 0x06	; 6
     e3e:	20 e1       	ldi	r18, 0x10	; 16
     e40:	32 e0       	ldi	r19, 0x02	; 2
     e42:	17 ff       	sbrs	r17, 7
     e44:	08 c0       	rjmp	.+16     	; 0xe56 <vfprintf+0x28e>
     e46:	f5 01       	movw	r30, r10
     e48:	60 81       	ld	r22, Z
     e4a:	71 81       	ldd	r23, Z+1	; 0x01
     e4c:	82 81       	ldd	r24, Z+2	; 0x02
     e4e:	93 81       	ldd	r25, Z+3	; 0x03
     e50:	44 e0       	ldi	r20, 0x04	; 4
     e52:	50 e0       	ldi	r21, 0x00	; 0
     e54:	08 c0       	rjmp	.+16     	; 0xe66 <vfprintf+0x29e>
     e56:	f5 01       	movw	r30, r10
     e58:	80 81       	ld	r24, Z
     e5a:	91 81       	ldd	r25, Z+1	; 0x01
     e5c:	bc 01       	movw	r22, r24
     e5e:	80 e0       	ldi	r24, 0x00	; 0
     e60:	90 e0       	ldi	r25, 0x00	; 0
     e62:	42 e0       	ldi	r20, 0x02	; 2
     e64:	50 e0       	ldi	r21, 0x00	; 0
     e66:	a4 0e       	add	r10, r20
     e68:	b5 1e       	adc	r11, r21
     e6a:	a1 01       	movw	r20, r2
     e6c:	0e 94 13 08 	call	0x1026	; 0x1026 <__ultoa_invert>
     e70:	d8 2e       	mov	r13, r24
     e72:	d2 18       	sub	r13, r2
     e74:	8f e7       	ldi	r24, 0x7F	; 127
     e76:	f8 2e       	mov	r15, r24
     e78:	f1 22       	and	r15, r17
     e7a:	f6 fe       	sbrs	r15, 6
     e7c:	0b c0       	rjmp	.+22     	; 0xe94 <vfprintf+0x2cc>
     e7e:	5e ef       	ldi	r21, 0xFE	; 254
     e80:	f5 22       	and	r15, r21
     e82:	d9 14       	cp	r13, r9
     e84:	38 f4       	brcc	.+14     	; 0xe94 <vfprintf+0x2cc>
     e86:	f4 fe       	sbrs	r15, 4
     e88:	07 c0       	rjmp	.+14     	; 0xe98 <vfprintf+0x2d0>
     e8a:	f2 fc       	sbrc	r15, 2
     e8c:	05 c0       	rjmp	.+10     	; 0xe98 <vfprintf+0x2d0>
     e8e:	8f ee       	ldi	r24, 0xEF	; 239
     e90:	f8 22       	and	r15, r24
     e92:	02 c0       	rjmp	.+4      	; 0xe98 <vfprintf+0x2d0>
     e94:	1d 2d       	mov	r17, r13
     e96:	01 c0       	rjmp	.+2      	; 0xe9a <vfprintf+0x2d2>
     e98:	19 2d       	mov	r17, r9
     e9a:	f4 fe       	sbrs	r15, 4
     e9c:	0d c0       	rjmp	.+26     	; 0xeb8 <vfprintf+0x2f0>
     e9e:	fe 01       	movw	r30, r28
     ea0:	ed 0d       	add	r30, r13
     ea2:	f1 1d       	adc	r31, r1
     ea4:	80 81       	ld	r24, Z
     ea6:	80 33       	cpi	r24, 0x30	; 48
     ea8:	19 f4       	brne	.+6      	; 0xeb0 <vfprintf+0x2e8>
     eaa:	99 ee       	ldi	r25, 0xE9	; 233
     eac:	f9 22       	and	r15, r25
     eae:	08 c0       	rjmp	.+16     	; 0xec0 <vfprintf+0x2f8>
     eb0:	1f 5f       	subi	r17, 0xFF	; 255
     eb2:	f2 fe       	sbrs	r15, 2
     eb4:	05 c0       	rjmp	.+10     	; 0xec0 <vfprintf+0x2f8>
     eb6:	03 c0       	rjmp	.+6      	; 0xebe <vfprintf+0x2f6>
     eb8:	8f 2d       	mov	r24, r15
     eba:	86 78       	andi	r24, 0x86	; 134
     ebc:	09 f0       	breq	.+2      	; 0xec0 <vfprintf+0x2f8>
     ebe:	1f 5f       	subi	r17, 0xFF	; 255
     ec0:	0f 2d       	mov	r16, r15
     ec2:	f3 fc       	sbrc	r15, 3
     ec4:	14 c0       	rjmp	.+40     	; 0xeee <vfprintf+0x326>
     ec6:	f0 fe       	sbrs	r15, 0
     ec8:	0f c0       	rjmp	.+30     	; 0xee8 <vfprintf+0x320>
     eca:	1e 15       	cp	r17, r14
     ecc:	10 f0       	brcs	.+4      	; 0xed2 <vfprintf+0x30a>
     ece:	9d 2c       	mov	r9, r13
     ed0:	0b c0       	rjmp	.+22     	; 0xee8 <vfprintf+0x320>
     ed2:	9d 2c       	mov	r9, r13
     ed4:	9e 0c       	add	r9, r14
     ed6:	91 1a       	sub	r9, r17
     ed8:	1e 2d       	mov	r17, r14
     eda:	06 c0       	rjmp	.+12     	; 0xee8 <vfprintf+0x320>
     edc:	80 e2       	ldi	r24, 0x20	; 32
     ede:	90 e0       	ldi	r25, 0x00	; 0
     ee0:	b3 01       	movw	r22, r6
     ee2:	0e 94 e7 07 	call	0xfce	; 0xfce <fputc>
     ee6:	1f 5f       	subi	r17, 0xFF	; 255
     ee8:	1e 15       	cp	r17, r14
     eea:	c0 f3       	brcs	.-16     	; 0xedc <vfprintf+0x314>
     eec:	04 c0       	rjmp	.+8      	; 0xef6 <vfprintf+0x32e>
     eee:	1e 15       	cp	r17, r14
     ef0:	10 f4       	brcc	.+4      	; 0xef6 <vfprintf+0x32e>
     ef2:	e1 1a       	sub	r14, r17
     ef4:	01 c0       	rjmp	.+2      	; 0xef8 <vfprintf+0x330>
     ef6:	ee 24       	eor	r14, r14
     ef8:	04 ff       	sbrs	r16, 4
     efa:	0f c0       	rjmp	.+30     	; 0xf1a <vfprintf+0x352>
     efc:	80 e3       	ldi	r24, 0x30	; 48
     efe:	90 e0       	ldi	r25, 0x00	; 0
     f00:	b3 01       	movw	r22, r6
     f02:	0e 94 e7 07 	call	0xfce	; 0xfce <fputc>
     f06:	02 ff       	sbrs	r16, 2
     f08:	1d c0       	rjmp	.+58     	; 0xf44 <vfprintf+0x37c>
     f0a:	01 fd       	sbrc	r16, 1
     f0c:	03 c0       	rjmp	.+6      	; 0xf14 <vfprintf+0x34c>
     f0e:	88 e7       	ldi	r24, 0x78	; 120
     f10:	90 e0       	ldi	r25, 0x00	; 0
     f12:	0e c0       	rjmp	.+28     	; 0xf30 <vfprintf+0x368>
     f14:	88 e5       	ldi	r24, 0x58	; 88
     f16:	90 e0       	ldi	r25, 0x00	; 0
     f18:	0b c0       	rjmp	.+22     	; 0xf30 <vfprintf+0x368>
     f1a:	80 2f       	mov	r24, r16
     f1c:	86 78       	andi	r24, 0x86	; 134
     f1e:	91 f0       	breq	.+36     	; 0xf44 <vfprintf+0x37c>
     f20:	01 ff       	sbrs	r16, 1
     f22:	02 c0       	rjmp	.+4      	; 0xf28 <vfprintf+0x360>
     f24:	8b e2       	ldi	r24, 0x2B	; 43
     f26:	01 c0       	rjmp	.+2      	; 0xf2a <vfprintf+0x362>
     f28:	80 e2       	ldi	r24, 0x20	; 32
     f2a:	f7 fc       	sbrc	r15, 7
     f2c:	8d e2       	ldi	r24, 0x2D	; 45
     f2e:	90 e0       	ldi	r25, 0x00	; 0
     f30:	b3 01       	movw	r22, r6
     f32:	0e 94 e7 07 	call	0xfce	; 0xfce <fputc>
     f36:	06 c0       	rjmp	.+12     	; 0xf44 <vfprintf+0x37c>
     f38:	80 e3       	ldi	r24, 0x30	; 48
     f3a:	90 e0       	ldi	r25, 0x00	; 0
     f3c:	b3 01       	movw	r22, r6
     f3e:	0e 94 e7 07 	call	0xfce	; 0xfce <fputc>
     f42:	9a 94       	dec	r9
     f44:	d9 14       	cp	r13, r9
     f46:	c0 f3       	brcs	.-16     	; 0xf38 <vfprintf+0x370>
     f48:	da 94       	dec	r13
     f4a:	f1 01       	movw	r30, r2
     f4c:	ed 0d       	add	r30, r13
     f4e:	f1 1d       	adc	r31, r1
     f50:	80 81       	ld	r24, Z
     f52:	90 e0       	ldi	r25, 0x00	; 0
     f54:	b3 01       	movw	r22, r6
     f56:	0e 94 e7 07 	call	0xfce	; 0xfce <fputc>
     f5a:	dd 20       	and	r13, r13
     f5c:	a9 f7       	brne	.-22     	; 0xf48 <vfprintf+0x380>
     f5e:	06 c0       	rjmp	.+12     	; 0xf6c <vfprintf+0x3a4>
     f60:	80 e2       	ldi	r24, 0x20	; 32
     f62:	90 e0       	ldi	r25, 0x00	; 0
     f64:	b3 01       	movw	r22, r6
     f66:	0e 94 e7 07 	call	0xfce	; 0xfce <fputc>
     f6a:	ea 94       	dec	r14
     f6c:	ee 20       	and	r14, r14
     f6e:	c1 f7       	brne	.-16     	; 0xf60 <vfprintf+0x398>
     f70:	43 ce       	rjmp	.-890    	; 0xbf8 <vfprintf+0x30>
     f72:	f3 01       	movw	r30, r6
     f74:	66 81       	ldd	r22, Z+6	; 0x06
     f76:	77 81       	ldd	r23, Z+7	; 0x07
     f78:	cb 01       	movw	r24, r22
     f7a:	2b 96       	adiw	r28, 0x0b	; 11
     f7c:	e2 e1       	ldi	r30, 0x12	; 18
     f7e:	0c 94 8d 08 	jmp	0x111a	; 0x111a <__epilogue_restores__>

00000f82 <strnlen_P>:
     f82:	fc 01       	movw	r30, r24
     f84:	05 90       	lpm	r0, Z+
     f86:	61 50       	subi	r22, 0x01	; 1
     f88:	70 40       	sbci	r23, 0x00	; 0
     f8a:	01 10       	cpse	r0, r1
     f8c:	d8 f7       	brcc	.-10     	; 0xf84 <strnlen_P+0x2>
     f8e:	80 95       	com	r24
     f90:	90 95       	com	r25
     f92:	8e 0f       	add	r24, r30
     f94:	9f 1f       	adc	r25, r31
     f96:	08 95       	ret

00000f98 <strnlen>:
     f98:	fc 01       	movw	r30, r24
     f9a:	61 50       	subi	r22, 0x01	; 1
     f9c:	70 40       	sbci	r23, 0x00	; 0
     f9e:	01 90       	ld	r0, Z+
     fa0:	01 10       	cpse	r0, r1
     fa2:	d8 f7       	brcc	.-10     	; 0xf9a <strnlen+0x2>
     fa4:	80 95       	com	r24
     fa6:	90 95       	com	r25
     fa8:	8e 0f       	add	r24, r30
     faa:	9f 1f       	adc	r25, r31
     fac:	08 95       	ret

00000fae <strrev>:
     fae:	dc 01       	movw	r26, r24
     fb0:	fc 01       	movw	r30, r24
     fb2:	67 2f       	mov	r22, r23
     fb4:	71 91       	ld	r23, Z+
     fb6:	77 23       	and	r23, r23
     fb8:	e1 f7       	brne	.-8      	; 0xfb2 <strrev+0x4>
     fba:	32 97       	sbiw	r30, 0x02	; 2
     fbc:	04 c0       	rjmp	.+8      	; 0xfc6 <strrev+0x18>
     fbe:	7c 91       	ld	r23, X
     fc0:	6d 93       	st	X+, r22
     fc2:	70 83       	st	Z, r23
     fc4:	62 91       	ld	r22, -Z
     fc6:	ae 17       	cp	r26, r30
     fc8:	bf 07       	cpc	r27, r31
     fca:	c8 f3       	brcs	.-14     	; 0xfbe <strrev+0x10>
     fcc:	08 95       	ret

00000fce <fputc>:
     fce:	0f 93       	push	r16
     fd0:	1f 93       	push	r17
     fd2:	cf 93       	push	r28
     fd4:	df 93       	push	r29
     fd6:	8c 01       	movw	r16, r24
     fd8:	eb 01       	movw	r28, r22
     fda:	8b 81       	ldd	r24, Y+3	; 0x03
     fdc:	81 ff       	sbrs	r24, 1
     fde:	1b c0       	rjmp	.+54     	; 0x1016 <fputc+0x48>
     fe0:	82 ff       	sbrs	r24, 2
     fe2:	0d c0       	rjmp	.+26     	; 0xffe <fputc+0x30>
     fe4:	2e 81       	ldd	r18, Y+6	; 0x06
     fe6:	3f 81       	ldd	r19, Y+7	; 0x07
     fe8:	8c 81       	ldd	r24, Y+4	; 0x04
     fea:	9d 81       	ldd	r25, Y+5	; 0x05
     fec:	28 17       	cp	r18, r24
     fee:	39 07       	cpc	r19, r25
     ff0:	64 f4       	brge	.+24     	; 0x100a <fputc+0x3c>
     ff2:	e8 81       	ld	r30, Y
     ff4:	f9 81       	ldd	r31, Y+1	; 0x01
     ff6:	01 93       	st	Z+, r16
     ff8:	f9 83       	std	Y+1, r31	; 0x01
     ffa:	e8 83       	st	Y, r30
     ffc:	06 c0       	rjmp	.+12     	; 0x100a <fputc+0x3c>
     ffe:	e8 85       	ldd	r30, Y+8	; 0x08
    1000:	f9 85       	ldd	r31, Y+9	; 0x09
    1002:	80 2f       	mov	r24, r16
    1004:	09 95       	icall
    1006:	89 2b       	or	r24, r25
    1008:	31 f4       	brne	.+12     	; 0x1016 <fputc+0x48>
    100a:	8e 81       	ldd	r24, Y+6	; 0x06
    100c:	9f 81       	ldd	r25, Y+7	; 0x07
    100e:	01 96       	adiw	r24, 0x01	; 1
    1010:	9f 83       	std	Y+7, r25	; 0x07
    1012:	8e 83       	std	Y+6, r24	; 0x06
    1014:	02 c0       	rjmp	.+4      	; 0x101a <fputc+0x4c>
    1016:	0f ef       	ldi	r16, 0xFF	; 255
    1018:	1f ef       	ldi	r17, 0xFF	; 255
    101a:	c8 01       	movw	r24, r16
    101c:	df 91       	pop	r29
    101e:	cf 91       	pop	r28
    1020:	1f 91       	pop	r17
    1022:	0f 91       	pop	r16
    1024:	08 95       	ret

00001026 <__ultoa_invert>:
    1026:	fa 01       	movw	r30, r20
    1028:	aa 27       	eor	r26, r26
    102a:	28 30       	cpi	r18, 0x08	; 8
    102c:	51 f1       	breq	.+84     	; 0x1082 <__ultoa_invert+0x5c>
    102e:	20 31       	cpi	r18, 0x10	; 16
    1030:	81 f1       	breq	.+96     	; 0x1092 <__ultoa_invert+0x6c>
    1032:	e8 94       	clt
    1034:	6f 93       	push	r22
    1036:	6e 7f       	andi	r22, 0xFE	; 254
    1038:	6e 5f       	subi	r22, 0xFE	; 254
    103a:	7f 4f       	sbci	r23, 0xFF	; 255
    103c:	8f 4f       	sbci	r24, 0xFF	; 255
    103e:	9f 4f       	sbci	r25, 0xFF	; 255
    1040:	af 4f       	sbci	r26, 0xFF	; 255
    1042:	b1 e0       	ldi	r27, 0x01	; 1
    1044:	3e d0       	rcall	.+124    	; 0x10c2 <__ultoa_invert+0x9c>
    1046:	b4 e0       	ldi	r27, 0x04	; 4
    1048:	3c d0       	rcall	.+120    	; 0x10c2 <__ultoa_invert+0x9c>
    104a:	67 0f       	add	r22, r23
    104c:	78 1f       	adc	r23, r24
    104e:	89 1f       	adc	r24, r25
    1050:	9a 1f       	adc	r25, r26
    1052:	a1 1d       	adc	r26, r1
    1054:	68 0f       	add	r22, r24
    1056:	79 1f       	adc	r23, r25
    1058:	8a 1f       	adc	r24, r26
    105a:	91 1d       	adc	r25, r1
    105c:	a1 1d       	adc	r26, r1
    105e:	6a 0f       	add	r22, r26
    1060:	71 1d       	adc	r23, r1
    1062:	81 1d       	adc	r24, r1
    1064:	91 1d       	adc	r25, r1
    1066:	a1 1d       	adc	r26, r1
    1068:	20 d0       	rcall	.+64     	; 0x10aa <__ultoa_invert+0x84>
    106a:	09 f4       	brne	.+2      	; 0x106e <__ultoa_invert+0x48>
    106c:	68 94       	set
    106e:	3f 91       	pop	r19
    1070:	2a e0       	ldi	r18, 0x0A	; 10
    1072:	26 9f       	mul	r18, r22
    1074:	11 24       	eor	r1, r1
    1076:	30 19       	sub	r19, r0
    1078:	30 5d       	subi	r19, 0xD0	; 208
    107a:	31 93       	st	Z+, r19
    107c:	de f6       	brtc	.-74     	; 0x1034 <__ultoa_invert+0xe>
    107e:	cf 01       	movw	r24, r30
    1080:	08 95       	ret
    1082:	46 2f       	mov	r20, r22
    1084:	47 70       	andi	r20, 0x07	; 7
    1086:	40 5d       	subi	r20, 0xD0	; 208
    1088:	41 93       	st	Z+, r20
    108a:	b3 e0       	ldi	r27, 0x03	; 3
    108c:	0f d0       	rcall	.+30     	; 0x10ac <__ultoa_invert+0x86>
    108e:	c9 f7       	brne	.-14     	; 0x1082 <__ultoa_invert+0x5c>
    1090:	f6 cf       	rjmp	.-20     	; 0x107e <__ultoa_invert+0x58>
    1092:	46 2f       	mov	r20, r22
    1094:	4f 70       	andi	r20, 0x0F	; 15
    1096:	40 5d       	subi	r20, 0xD0	; 208
    1098:	4a 33       	cpi	r20, 0x3A	; 58
    109a:	18 f0       	brcs	.+6      	; 0x10a2 <__ultoa_invert+0x7c>
    109c:	49 5d       	subi	r20, 0xD9	; 217
    109e:	31 fd       	sbrc	r19, 1
    10a0:	40 52       	subi	r20, 0x20	; 32
    10a2:	41 93       	st	Z+, r20
    10a4:	02 d0       	rcall	.+4      	; 0x10aa <__ultoa_invert+0x84>
    10a6:	a9 f7       	brne	.-22     	; 0x1092 <__ultoa_invert+0x6c>
    10a8:	ea cf       	rjmp	.-44     	; 0x107e <__ultoa_invert+0x58>
    10aa:	b4 e0       	ldi	r27, 0x04	; 4
    10ac:	a6 95       	lsr	r26
    10ae:	97 95       	ror	r25
    10b0:	87 95       	ror	r24
    10b2:	77 95       	ror	r23
    10b4:	67 95       	ror	r22
    10b6:	ba 95       	dec	r27
    10b8:	c9 f7       	brne	.-14     	; 0x10ac <__ultoa_invert+0x86>
    10ba:	00 97       	sbiw	r24, 0x00	; 0
    10bc:	61 05       	cpc	r22, r1
    10be:	71 05       	cpc	r23, r1
    10c0:	08 95       	ret
    10c2:	9b 01       	movw	r18, r22
    10c4:	ac 01       	movw	r20, r24
    10c6:	0a 2e       	mov	r0, r26
    10c8:	06 94       	lsr	r0
    10ca:	57 95       	ror	r21
    10cc:	47 95       	ror	r20
    10ce:	37 95       	ror	r19
    10d0:	27 95       	ror	r18
    10d2:	ba 95       	dec	r27
    10d4:	c9 f7       	brne	.-14     	; 0x10c8 <__ultoa_invert+0xa2>
    10d6:	62 0f       	add	r22, r18
    10d8:	73 1f       	adc	r23, r19
    10da:	84 1f       	adc	r24, r20
    10dc:	95 1f       	adc	r25, r21
    10de:	a0 1d       	adc	r26, r0
    10e0:	08 95       	ret

000010e2 <__prologue_saves__>:
    10e2:	2f 92       	push	r2
    10e4:	3f 92       	push	r3
    10e6:	4f 92       	push	r4
    10e8:	5f 92       	push	r5
    10ea:	6f 92       	push	r6
    10ec:	7f 92       	push	r7
    10ee:	8f 92       	push	r8
    10f0:	9f 92       	push	r9
    10f2:	af 92       	push	r10
    10f4:	bf 92       	push	r11
    10f6:	cf 92       	push	r12
    10f8:	df 92       	push	r13
    10fa:	ef 92       	push	r14
    10fc:	ff 92       	push	r15
    10fe:	0f 93       	push	r16
    1100:	1f 93       	push	r17
    1102:	cf 93       	push	r28
    1104:	df 93       	push	r29
    1106:	cd b7       	in	r28, 0x3d	; 61
    1108:	de b7       	in	r29, 0x3e	; 62
    110a:	ca 1b       	sub	r28, r26
    110c:	db 0b       	sbc	r29, r27
    110e:	0f b6       	in	r0, 0x3f	; 63
    1110:	f8 94       	cli
    1112:	de bf       	out	0x3e, r29	; 62
    1114:	0f be       	out	0x3f, r0	; 63
    1116:	cd bf       	out	0x3d, r28	; 61
    1118:	09 94       	ijmp

0000111a <__epilogue_restores__>:
    111a:	2a 88       	ldd	r2, Y+18	; 0x12
    111c:	39 88       	ldd	r3, Y+17	; 0x11
    111e:	48 88       	ldd	r4, Y+16	; 0x10
    1120:	5f 84       	ldd	r5, Y+15	; 0x0f
    1122:	6e 84       	ldd	r6, Y+14	; 0x0e
    1124:	7d 84       	ldd	r7, Y+13	; 0x0d
    1126:	8c 84       	ldd	r8, Y+12	; 0x0c
    1128:	9b 84       	ldd	r9, Y+11	; 0x0b
    112a:	aa 84       	ldd	r10, Y+10	; 0x0a
    112c:	b9 84       	ldd	r11, Y+9	; 0x09
    112e:	c8 84       	ldd	r12, Y+8	; 0x08
    1130:	df 80       	ldd	r13, Y+7	; 0x07
    1132:	ee 80       	ldd	r14, Y+6	; 0x06
    1134:	fd 80       	ldd	r15, Y+5	; 0x05
    1136:	0c 81       	ldd	r16, Y+4	; 0x04
    1138:	1b 81       	ldd	r17, Y+3	; 0x03
    113a:	aa 81       	ldd	r26, Y+2	; 0x02
    113c:	b9 81       	ldd	r27, Y+1	; 0x01
    113e:	ce 0f       	add	r28, r30
    1140:	d1 1d       	adc	r29, r1
    1142:	0f b6       	in	r0, 0x3f	; 63
    1144:	f8 94       	cli
    1146:	de bf       	out	0x3e, r29	; 62
    1148:	0f be       	out	0x3f, r0	; 63
    114a:	cd bf       	out	0x3d, r28	; 61
    114c:	ed 01       	movw	r28, r26
    114e:	08 95       	ret

00001150 <_exit>:
    1150:	f8 94       	cli

00001152 <__stop_program>:
    1152:	ff cf       	rjmp	.-2      	; 0x1152 <__stop_program>
